
Prototype.elf:     file format elf32-avr

Sections:
Idx Name          Size      VMA       LMA       File off  Algn
  0 .text         00002eca  00000000  00000000  00000094  2**1
                  CONTENTS, ALLOC, LOAD, READONLY, CODE
  1 .data         00000086  00802000  00002eca  00002f5e  2**0
                  CONTENTS, ALLOC, LOAD, DATA
  2 .bss          00000073  00802086  00802086  00002fe4  2**0
                  ALLOC
  3 .comment      0000005c  00000000  00000000  00002fe4  2**0
                  CONTENTS, READONLY
  4 .note.gnu.avr.deviceinfo 00000040  00000000  00000000  00003040  2**2
                  CONTENTS, READONLY
  5 .debug_aranges 00000438  00000000  00000000  00003080  2**3
                  CONTENTS, READONLY, DEBUGGING
  6 .debug_info   0000e059  00000000  00000000  000034b8  2**0
                  CONTENTS, READONLY, DEBUGGING
  7 .debug_abbrev 0000549a  00000000  00000000  00011511  2**0
                  CONTENTS, READONLY, DEBUGGING
  8 .debug_line   00006bae  00000000  00000000  000169ab  2**0
                  CONTENTS, READONLY, DEBUGGING
  9 .debug_frame  00001664  00000000  00000000  0001d55c  2**2
                  CONTENTS, READONLY, DEBUGGING
 10 .debug_str    0003531c  00000000  00000000  0001ebc0  2**0
                  CONTENTS, READONLY, DEBUGGING
 11 .debug_loc    0000458d  00000000  00000000  00053edc  2**0
                  CONTENTS, READONLY, DEBUGGING
 12 .debug_ranges 000003f0  00000000  00000000  00058469  2**0
                  CONTENTS, READONLY, DEBUGGING
 13 .debug_macro  00002150  00000000  00000000  00058859  2**0
                  CONTENTS, READONLY, DEBUGGING

Disassembly of section .text:

00000000 <__vectors>:
       0:	fd c0       	rjmp	.+506    	; 0x1fc <__ctors_end>
       2:	00 00       	nop
       4:	21 c1       	rjmp	.+578    	; 0x248 <__bad_interrupt>
       6:	00 00       	nop
       8:	1f c1       	rjmp	.+574    	; 0x248 <__bad_interrupt>
       a:	00 00       	nop
       c:	1d c1       	rjmp	.+570    	; 0x248 <__bad_interrupt>
       e:	00 00       	nop
      10:	1b c1       	rjmp	.+566    	; 0x248 <__bad_interrupt>
      12:	00 00       	nop
      14:	19 c1       	rjmp	.+562    	; 0x248 <__bad_interrupt>
      16:	00 00       	nop
      18:	17 c1       	rjmp	.+558    	; 0x248 <__bad_interrupt>
      1a:	00 00       	nop
      1c:	15 c1       	rjmp	.+554    	; 0x248 <__bad_interrupt>
      1e:	00 00       	nop
      20:	13 c1       	rjmp	.+550    	; 0x248 <__bad_interrupt>
      22:	00 00       	nop
      24:	11 c1       	rjmp	.+546    	; 0x248 <__bad_interrupt>
      26:	00 00       	nop
      28:	8c c1       	rjmp	.+792    	; 0x342 <__vector_10>
      2a:	00 00       	nop
      2c:	ad c1       	rjmp	.+858    	; 0x388 <__vector_11>
      2e:	00 00       	nop
      30:	0b c1       	rjmp	.+534    	; 0x248 <__bad_interrupt>
      32:	00 00       	nop
      34:	0c 94 9f 0b 	jmp	0x173e	; 0x173e <__vector_13>
      38:	2b c2       	rjmp	.+1110   	; 0x490 <__vector_14>
      3a:	00 00       	nop
      3c:	61 c2       	rjmp	.+1218   	; 0x500 <__vector_15>
      3e:	00 00       	nop
      40:	97 c2       	rjmp	.+1326   	; 0x570 <__vector_16>
      42:	00 00       	nop
      44:	cd c2       	rjmp	.+1434   	; 0x5e0 <__vector_17>
      46:	00 00       	nop
      48:	03 c3       	rjmp	.+1542   	; 0x650 <__vector_18>
      4a:	00 00       	nop
      4c:	39 c3       	rjmp	.+1650   	; 0x6c0 <__vector_19>
      4e:	00 00       	nop
      50:	6f c3       	rjmp	.+1758   	; 0x730 <__vector_20>
      52:	00 00       	nop
      54:	a5 c3       	rjmp	.+1866   	; 0x7a0 <__vector_21>
      56:	00 00       	nop
      58:	db c3       	rjmp	.+1974   	; 0x810 <__vector_22>
      5a:	00 00       	nop
      5c:	11 c4       	rjmp	.+2082   	; 0x880 <__vector_23>
      5e:	00 00       	nop
      60:	f3 c0       	rjmp	.+486    	; 0x248 <__bad_interrupt>
      62:	00 00       	nop
      64:	f1 c0       	rjmp	.+482    	; 0x248 <__bad_interrupt>
      66:	00 00       	nop
      68:	ef c0       	rjmp	.+478    	; 0x248 <__bad_interrupt>
      6a:	00 00       	nop
      6c:	ed c0       	rjmp	.+474    	; 0x248 <__bad_interrupt>
      6e:	00 00       	nop
      70:	eb c0       	rjmp	.+470    	; 0x248 <__bad_interrupt>
      72:	00 00       	nop
      74:	e9 c0       	rjmp	.+466    	; 0x248 <__bad_interrupt>
      76:	00 00       	nop
      78:	e7 c0       	rjmp	.+462    	; 0x248 <__bad_interrupt>
      7a:	00 00       	nop
      7c:	e5 c0       	rjmp	.+458    	; 0x248 <__bad_interrupt>
      7e:	00 00       	nop
      80:	e3 c0       	rjmp	.+454    	; 0x248 <__bad_interrupt>
      82:	00 00       	nop
      84:	e1 c0       	rjmp	.+450    	; 0x248 <__bad_interrupt>
      86:	00 00       	nop
      88:	df c0       	rjmp	.+446    	; 0x248 <__bad_interrupt>
      8a:	00 00       	nop
      8c:	dd c0       	rjmp	.+442    	; 0x248 <__bad_interrupt>
      8e:	00 00       	nop
      90:	db c0       	rjmp	.+438    	; 0x248 <__bad_interrupt>
      92:	00 00       	nop
      94:	d9 c0       	rjmp	.+434    	; 0x248 <__bad_interrupt>
      96:	00 00       	nop
      98:	d7 c0       	rjmp	.+430    	; 0x248 <__bad_interrupt>
      9a:	00 00       	nop
      9c:	d5 c0       	rjmp	.+426    	; 0x248 <__bad_interrupt>
      9e:	00 00       	nop
      a0:	d3 c0       	rjmp	.+422    	; 0x248 <__bad_interrupt>
      a2:	00 00       	nop
      a4:	d1 c0       	rjmp	.+418    	; 0x248 <__bad_interrupt>
      a6:	00 00       	nop
      a8:	cf c0       	rjmp	.+414    	; 0x248 <__bad_interrupt>
      aa:	00 00       	nop
      ac:	cd c0       	rjmp	.+410    	; 0x248 <__bad_interrupt>
      ae:	00 00       	nop
      b0:	cb c0       	rjmp	.+406    	; 0x248 <__bad_interrupt>
      b2:	00 00       	nop
      b4:	c9 c0       	rjmp	.+402    	; 0x248 <__bad_interrupt>
      b6:	00 00       	nop
      b8:	0c 94 03 0c 	jmp	0x1806	; 0x1806 <__vector_46>
      bc:	49 c6       	rjmp	.+3218   	; 0xd50 <__vector_47>
      be:	00 00       	nop
      c0:	7f c6       	rjmp	.+3326   	; 0xdc0 <__vector_48>
      c2:	00 00       	nop
      c4:	b5 c6       	rjmp	.+3434   	; 0xe30 <__vector_49>
      c6:	00 00       	nop
      c8:	eb c6       	rjmp	.+3542   	; 0xea0 <__vector_50>
      ca:	00 00       	nop
      cc:	21 c7       	rjmp	.+3650   	; 0xf10 <__vector_51>
      ce:	00 00       	nop
      d0:	57 c7       	rjmp	.+3758   	; 0xf80 <__vector_52>
      d2:	00 00       	nop
      d4:	8d c7       	rjmp	.+3866   	; 0xff0 <__vector_53>
      d6:	00 00       	nop
      d8:	c3 c7       	rjmp	.+3974   	; 0x1060 <__vector_54>
      da:	00 00       	nop
      dc:	f9 c7       	rjmp	.+4082   	; 0x10d0 <__vector_55>
      de:	00 00       	nop
      e0:	0c 94 a0 08 	jmp	0x1140	; 0x1140 <__vector_56>
      e4:	b1 c0       	rjmp	.+354    	; 0x248 <__bad_interrupt>
      e6:	00 00       	nop
      e8:	af c0       	rjmp	.+350    	; 0x248 <__bad_interrupt>
      ea:	00 00       	nop
      ec:	ad c0       	rjmp	.+346    	; 0x248 <__bad_interrupt>
      ee:	00 00       	nop
      f0:	ab c0       	rjmp	.+342    	; 0x248 <__bad_interrupt>
      f2:	00 00       	nop
      f4:	a9 c0       	rjmp	.+338    	; 0x248 <__bad_interrupt>
      f6:	00 00       	nop
      f8:	a7 c0       	rjmp	.+334    	; 0x248 <__bad_interrupt>
      fa:	00 00       	nop
      fc:	a5 c0       	rjmp	.+330    	; 0x248 <__bad_interrupt>
      fe:	00 00       	nop
     100:	a3 c0       	rjmp	.+326    	; 0x248 <__bad_interrupt>
     102:	00 00       	nop
     104:	a1 c0       	rjmp	.+322    	; 0x248 <__bad_interrupt>
     106:	00 00       	nop
     108:	9f c0       	rjmp	.+318    	; 0x248 <__bad_interrupt>
     10a:	00 00       	nop
     10c:	9d c0       	rjmp	.+314    	; 0x248 <__bad_interrupt>
     10e:	00 00       	nop
     110:	9b c0       	rjmp	.+310    	; 0x248 <__bad_interrupt>
     112:	00 00       	nop
     114:	99 c0       	rjmp	.+306    	; 0x248 <__bad_interrupt>
     116:	00 00       	nop
     118:	97 c0       	rjmp	.+302    	; 0x248 <__bad_interrupt>
     11a:	00 00       	nop
     11c:	95 c0       	rjmp	.+298    	; 0x248 <__bad_interrupt>
     11e:	00 00       	nop
     120:	93 c0       	rjmp	.+294    	; 0x248 <__bad_interrupt>
     122:	00 00       	nop
     124:	91 c0       	rjmp	.+290    	; 0x248 <__bad_interrupt>
     126:	00 00       	nop
     128:	8f c0       	rjmp	.+286    	; 0x248 <__bad_interrupt>
     12a:	00 00       	nop
     12c:	8d c0       	rjmp	.+282    	; 0x248 <__bad_interrupt>
     12e:	00 00       	nop
     130:	0c 94 d1 0b 	jmp	0x17a2	; 0x17a2 <__vector_76>
     134:	dd c3       	rjmp	.+1978   	; 0x8f0 <__vector_77>
     136:	00 00       	nop
     138:	13 c4       	rjmp	.+2086   	; 0x960 <__vector_78>
     13a:	00 00       	nop
     13c:	49 c4       	rjmp	.+2194   	; 0x9d0 <__vector_79>
     13e:	00 00       	nop
     140:	7f c4       	rjmp	.+2302   	; 0xa40 <__vector_80>
     142:	00 00       	nop
     144:	b5 c4       	rjmp	.+2410   	; 0xab0 <__vector_81>
     146:	00 00       	nop
     148:	eb c4       	rjmp	.+2518   	; 0xb20 <__vector_82>
     14a:	00 00       	nop
     14c:	21 c5       	rjmp	.+2626   	; 0xb90 <__vector_83>
     14e:	00 00       	nop
     150:	57 c5       	rjmp	.+2734   	; 0xc00 <__vector_84>
     152:	00 00       	nop
     154:	8d c5       	rjmp	.+2842   	; 0xc70 <__vector_85>
     156:	00 00       	nop
     158:	c3 c5       	rjmp	.+2950   	; 0xce0 <__vector_86>
     15a:	00 00       	nop
     15c:	75 c0       	rjmp	.+234    	; 0x248 <__bad_interrupt>
     15e:	00 00       	nop
     160:	73 c0       	rjmp	.+230    	; 0x248 <__bad_interrupt>
     162:	00 00       	nop
     164:	71 c0       	rjmp	.+226    	; 0x248 <__bad_interrupt>
     166:	00 00       	nop
     168:	6f c0       	rjmp	.+222    	; 0x248 <__bad_interrupt>
     16a:	00 00       	nop
     16c:	6d c0       	rjmp	.+218    	; 0x248 <__bad_interrupt>
     16e:	00 00       	nop
     170:	6b c0       	rjmp	.+214    	; 0x248 <__bad_interrupt>
     172:	00 00       	nop
     174:	69 c0       	rjmp	.+210    	; 0x248 <__bad_interrupt>
     176:	00 00       	nop
     178:	67 c0       	rjmp	.+206    	; 0x248 <__bad_interrupt>
     17a:	00 00       	nop
     17c:	65 c0       	rjmp	.+202    	; 0x248 <__bad_interrupt>
     17e:	00 00       	nop
     180:	63 c0       	rjmp	.+198    	; 0x248 <__bad_interrupt>
     182:	00 00       	nop
     184:	61 c0       	rjmp	.+194    	; 0x248 <__bad_interrupt>
     186:	00 00       	nop
     188:	5f c0       	rjmp	.+190    	; 0x248 <__bad_interrupt>
     18a:	00 00       	nop
     18c:	5d c0       	rjmp	.+186    	; 0x248 <__bad_interrupt>
     18e:	00 00       	nop
     190:	5b c0       	rjmp	.+182    	; 0x248 <__bad_interrupt>
     192:	00 00       	nop
     194:	59 c0       	rjmp	.+178    	; 0x248 <__bad_interrupt>
     196:	00 00       	nop
     198:	57 c0       	rjmp	.+174    	; 0x248 <__bad_interrupt>
     19a:	00 00       	nop
     19c:	55 c0       	rjmp	.+170    	; 0x248 <__bad_interrupt>
     19e:	00 00       	nop
     1a0:	53 c0       	rjmp	.+166    	; 0x248 <__bad_interrupt>
     1a2:	00 00       	nop
     1a4:	51 c0       	rjmp	.+162    	; 0x248 <__bad_interrupt>
     1a6:	00 00       	nop
     1a8:	4f c0       	rjmp	.+158    	; 0x248 <__bad_interrupt>
     1aa:	00 00       	nop
     1ac:	0c 94 35 0c 	jmp	0x186a	; 0x186a <__vector_107>
     1b0:	0c 94 d8 08 	jmp	0x11b0	; 0x11b0 <__vector_108>
     1b4:	0c 94 10 09 	jmp	0x1220	; 0x1220 <__vector_109>
     1b8:	0c 94 48 09 	jmp	0x1290	; 0x1290 <__vector_110>
     1bc:	0c 94 80 09 	jmp	0x1300	; 0x1300 <__vector_111>
     1c0:	0c 94 b8 09 	jmp	0x1370	; 0x1370 <__vector_112>
     1c4:	0c 94 f0 09 	jmp	0x13e0	; 0x13e0 <__vector_113>
     1c8:	0c 94 28 0a 	jmp	0x1450	; 0x1450 <__vector_114>
     1cc:	0c 94 60 0a 	jmp	0x14c0	; 0x14c0 <__vector_115>
     1d0:	0c 94 98 0a 	jmp	0x1530	; 0x1530 <__vector_116>
     1d4:	0c 94 d0 0a 	jmp	0x15a0	; 0x15a0 <__vector_117>
     1d8:	37 c0       	rjmp	.+110    	; 0x248 <__bad_interrupt>
     1da:	00 00       	nop
     1dc:	35 c0       	rjmp	.+106    	; 0x248 <__bad_interrupt>
     1de:	00 00       	nop
     1e0:	33 c0       	rjmp	.+102    	; 0x248 <__bad_interrupt>
     1e2:	00 00       	nop
     1e4:	31 c0       	rjmp	.+98     	; 0x248 <__bad_interrupt>
     1e6:	00 00       	nop
     1e8:	2f c0       	rjmp	.+94     	; 0x248 <__bad_interrupt>
     1ea:	00 00       	nop
     1ec:	2d c0       	rjmp	.+90     	; 0x248 <__bad_interrupt>
     1ee:	00 00       	nop
     1f0:	2b c0       	rjmp	.+86     	; 0x248 <__bad_interrupt>
     1f2:	00 00       	nop
     1f4:	29 c0       	rjmp	.+82     	; 0x248 <__bad_interrupt>
     1f6:	00 00       	nop
     1f8:	27 c0       	rjmp	.+78     	; 0x248 <__bad_interrupt>
	...

000001fc <__ctors_end>:
     1fc:	11 24       	eor	r1, r1
     1fe:	1f be       	out	0x3f, r1	; 63
     200:	cf ef       	ldi	r28, 0xFF	; 255
     202:	cd bf       	out	0x3d, r28	; 61
     204:	df e3       	ldi	r29, 0x3F	; 63
     206:	de bf       	out	0x3e, r29	; 62
     208:	00 e0       	ldi	r16, 0x00	; 0
     20a:	0c bf       	out	0x3c, r16	; 60
     20c:	18 be       	out	0x38, r1	; 56
     20e:	19 be       	out	0x39, r1	; 57
     210:	1a be       	out	0x3a, r1	; 58
     212:	1b be       	out	0x3b, r1	; 59

00000214 <__do_copy_data>:
     214:	10 e2       	ldi	r17, 0x20	; 32
     216:	a0 e0       	ldi	r26, 0x00	; 0
     218:	b0 e2       	ldi	r27, 0x20	; 32
     21a:	ea ec       	ldi	r30, 0xCA	; 202
     21c:	fe e2       	ldi	r31, 0x2E	; 46
     21e:	00 e0       	ldi	r16, 0x00	; 0
     220:	0b bf       	out	0x3b, r16	; 59
     222:	02 c0       	rjmp	.+4      	; 0x228 <__do_copy_data+0x14>
     224:	07 90       	elpm	r0, Z+
     226:	0d 92       	st	X+, r0
     228:	a6 38       	cpi	r26, 0x86	; 134
     22a:	b1 07       	cpc	r27, r17
     22c:	d9 f7       	brne	.-10     	; 0x224 <__do_copy_data+0x10>
     22e:	1b be       	out	0x3b, r1	; 59

00000230 <__do_clear_bss>:
     230:	20 e2       	ldi	r18, 0x20	; 32
     232:	a6 e8       	ldi	r26, 0x86	; 134
     234:	b0 e2       	ldi	r27, 0x20	; 32
     236:	01 c0       	rjmp	.+2      	; 0x23a <.do_clear_bss_start>

00000238 <.do_clear_bss_loop>:
     238:	1d 92       	st	X+, r1

0000023a <.do_clear_bss_start>:
     23a:	a9 3f       	cpi	r26, 0xF9	; 249
     23c:	b2 07       	cpc	r27, r18
     23e:	e1 f7       	brne	.-8      	; 0x238 <.do_clear_bss_loop>
     240:	0e 94 5b 12 	call	0x24b6	; 0x24b6 <main>
     244:	0c 94 63 17 	jmp	0x2ec6	; 0x2ec6 <_exit>

00000248 <__bad_interrupt>:
     248:	db ce       	rjmp	.-586    	; 0x0 <__vectors>

0000024a <sysclk_init>:
#  include <nvm.h>
#endif


void sysclk_init(void)
{
     24a:	cf 93       	push	r28
     24c:	df 93       	push	r29
     24e:	1f 92       	push	r1
     250:	1f 92       	push	r1
     252:	cd b7       	in	r28, 0x3d	; 61
     254:	de b7       	in	r29, 0x3e	; 62
#endif
	bool need_rc2mhz = false;

	/* Turn off all peripheral clocks that can be turned off. */
	for (i = 0; i <= SYSCLK_PORT_F; i++) {
		*(reg++) = 0xff;
     256:	8f ef       	ldi	r24, 0xFF	; 255
     258:	80 93 70 00 	sts	0x0070, r24	; 0x800070 <__TEXT_REGION_LENGTH__+0x700070>
     25c:	80 93 71 00 	sts	0x0071, r24	; 0x800071 <__TEXT_REGION_LENGTH__+0x700071>
     260:	80 93 72 00 	sts	0x0072, r24	; 0x800072 <__TEXT_REGION_LENGTH__+0x700072>
     264:	80 93 73 00 	sts	0x0073, r24	; 0x800073 <__TEXT_REGION_LENGTH__+0x700073>
     268:	80 93 74 00 	sts	0x0074, r24	; 0x800074 <__TEXT_REGION_LENGTH__+0x700074>
     26c:	80 93 75 00 	sts	0x0075, r24	; 0x800075 <__TEXT_REGION_LENGTH__+0x700075>
     270:	80 93 76 00 	sts	0x0076, r24	; 0x800076 <__TEXT_REGION_LENGTH__+0x700076>

typedef uint8_t irqflags_t;

static inline irqflags_t cpu_irq_save(void)
{
	volatile irqflags_t flags = SREG;
     274:	8f b7       	in	r24, 0x3f	; 63
     276:	8a 83       	std	Y+2, r24	; 0x02
	cpu_irq_disable();
     278:	f8 94       	cli
	return flags;
     27a:	9a 81       	ldd	r25, Y+2	; 0x02
	irqflags_t flags;

	Assert(id != OSC_ID_USBSOF);

	flags = cpu_irq_save();
	OSC.CTRL |= id;
     27c:	e0 e5       	ldi	r30, 0x50	; 80
     27e:	f0 e0       	ldi	r31, 0x00	; 0
     280:	80 81       	ld	r24, Z
     282:	82 60       	ori	r24, 0x02	; 2
     284:	80 83       	st	Z, r24
}

static inline void cpu_irq_restore(irqflags_t flags)
{
	barrier();
	SREG = flags;
     286:	9f bf       	out	0x3f, r25	; 63

static inline bool osc_is_ready(uint8_t id)
{
	Assert(id != OSC_ID_USBSOF);

	return OSC.STATUS & id;
     288:	81 81       	ldd	r24, Z+1	; 0x01
 *
 * \param id A number identifying the oscillator to wait for.
 */
static inline void osc_wait_ready(uint8_t id)
{
	while (!osc_is_ready(id)) {
     28a:	81 ff       	sbrs	r24, 1
     28c:	fd cf       	rjmp	.-6      	; 0x288 <sysclk_init+0x3e>
		default:
			//unhandled_case(CONFIG_SYSCLK_SOURCE);
			return;
		}

		ccp_write_io((uint8_t *)&CLK.CTRL, CONFIG_SYSCLK_SOURCE);
     28e:	61 e0       	ldi	r22, 0x01	; 1
     290:	80 e4       	ldi	r24, 0x40	; 64
     292:	90 e0       	ldi	r25, 0x00	; 0
     294:	50 d0       	rcall	.+160    	; 0x336 <ccp_write_io>

typedef uint8_t irqflags_t;

static inline irqflags_t cpu_irq_save(void)
{
	volatile irqflags_t flags = SREG;
     296:	8f b7       	in	r24, 0x3f	; 63
     298:	89 83       	std	Y+1, r24	; 0x01
	cpu_irq_disable();
     29a:	f8 94       	cli
	return flags;
     29c:	99 81       	ldd	r25, Y+1	; 0x01
	irqflags_t flags;

	Assert(id != OSC_ID_USBSOF);

	flags = cpu_irq_save();
	OSC.CTRL &= ~id;
     29e:	e0 e5       	ldi	r30, 0x50	; 80
     2a0:	f0 e0       	ldi	r31, 0x00	; 0
     2a2:	80 81       	ld	r24, Z
     2a4:	8e 7f       	andi	r24, 0xFE	; 254
     2a6:	80 83       	st	Z, r24
}

static inline void cpu_irq_restore(irqflags_t flags)
{
	barrier();
	SREG = flags;
     2a8:	9f bf       	out	0x3f, r25	; 63
	}

#ifdef CONFIG_RTC_SOURCE
	sysclk_rtcsrc_enable(CONFIG_RTC_SOURCE);
#endif
}
     2aa:	0f 90       	pop	r0
     2ac:	0f 90       	pop	r0
     2ae:	df 91       	pop	r29
     2b0:	cf 91       	pop	r28
     2b2:	08 95       	ret

000002b4 <sysclk_enable_module>:

void sysclk_enable_module(enum sysclk_port_id port, uint8_t id)
{
     2b4:	cf 93       	push	r28
     2b6:	df 93       	push	r29
     2b8:	1f 92       	push	r1
     2ba:	cd b7       	in	r28, 0x3d	; 61
     2bc:	de b7       	in	r29, 0x3e	; 62

typedef uint8_t irqflags_t;

static inline irqflags_t cpu_irq_save(void)
{
	volatile irqflags_t flags = SREG;
     2be:	9f b7       	in	r25, 0x3f	; 63
     2c0:	99 83       	std	Y+1, r25	; 0x01
	cpu_irq_disable();
     2c2:	f8 94       	cli
	return flags;
     2c4:	99 81       	ldd	r25, Y+1	; 0x01
	irqflags_t flags = cpu_irq_save();

	*((uint8_t *)&PR.PRGEN + port) &= ~id;
     2c6:	e8 2f       	mov	r30, r24
     2c8:	f0 e0       	ldi	r31, 0x00	; 0
     2ca:	e0 59       	subi	r30, 0x90	; 144
     2cc:	ff 4f       	sbci	r31, 0xFF	; 255
     2ce:	60 95       	com	r22
     2d0:	80 81       	ld	r24, Z
     2d2:	68 23       	and	r22, r24
     2d4:	60 83       	st	Z, r22
}

static inline void cpu_irq_restore(irqflags_t flags)
{
	barrier();
	SREG = flags;
     2d6:	9f bf       	out	0x3f, r25	; 63

	cpu_irq_restore(flags);
}
     2d8:	0f 90       	pop	r0
     2da:	df 91       	pop	r29
     2dc:	cf 91       	pop	r28
     2de:	08 95       	ret

000002e0 <_read>:
#elif (defined(__GNUC__) && (XMEGA || MEGA) )

int _read (int *f); // Remove GCC compiler warning

int _read (int *f)
{
     2e0:	cf 93       	push	r28
     2e2:	df 93       	push	r29
     2e4:	1f 92       	push	r1
     2e6:	cd b7       	in	r28, 0x3d	; 61
     2e8:	de b7       	in	r29, 0x3e	; 62
	char c;
	ptr_get(stdio_base,&c);
     2ea:	80 91 e5 20 	lds	r24, 0x20E5	; 0x8020e5 <stdio_base>
     2ee:	90 91 e6 20 	lds	r25, 0x20E6	; 0x8020e6 <stdio_base+0x1>
     2f2:	e0 91 e1 20 	lds	r30, 0x20E1	; 0x8020e1 <ptr_get>
     2f6:	f0 91 e2 20 	lds	r31, 0x20E2	; 0x8020e2 <ptr_get+0x1>
     2fa:	be 01       	movw	r22, r28
     2fc:	6f 5f       	subi	r22, 0xFF	; 255
     2fe:	7f 4f       	sbci	r23, 0xFF	; 255
     300:	19 95       	eicall
	return c;
     302:	89 81       	ldd	r24, Y+1	; 0x01
}
     304:	08 2e       	mov	r0, r24
     306:	00 0c       	add	r0, r0
     308:	99 0b       	sbc	r25, r25
     30a:	0f 90       	pop	r0
     30c:	df 91       	pop	r29
     30e:	cf 91       	pop	r28
     310:	08 95       	ret

00000312 <_write>:
#elif (defined(__GNUC__) && (XMEGA || MEGA))

int _write (char c, int *f);

int _write (char c, int *f)
{
     312:	68 2f       	mov	r22, r24
	if (ptr_put(stdio_base, c) < 0) {
     314:	80 91 e5 20 	lds	r24, 0x20E5	; 0x8020e5 <stdio_base>
     318:	90 91 e6 20 	lds	r25, 0x20E6	; 0x8020e6 <stdio_base+0x1>
     31c:	e0 91 e3 20 	lds	r30, 0x20E3	; 0x8020e3 <ptr_put>
     320:	f0 91 e4 20 	lds	r31, 0x20E4	; 0x8020e4 <ptr_put+0x1>
     324:	19 95       	eicall
     326:	99 23       	and	r25, r25
     328:	1c f0       	brlt	.+6      	; 0x330 <_write+0x1e>
		return -1;
	}
	return 1;
     32a:	81 e0       	ldi	r24, 0x01	; 1
     32c:	90 e0       	ldi	r25, 0x00	; 0
     32e:	08 95       	ret
int _write (char c, int *f);

int _write (char c, int *f)
{
	if (ptr_put(stdio_base, c) < 0) {
		return -1;
     330:	8f ef       	ldi	r24, 0xFF	; 255
     332:	9f ef       	ldi	r25, 0xFF	; 255
	}
	return 1;
}
     334:	08 95       	ret

00000336 <ccp_write_io>:

	PUBLIC_FUNCTION(ccp_write_io)

#if defined(__GNUC__)

	out     RAMPZ, r1               // Reset bits 23:16 of Z
     336:	1b be       	out	0x3b, r1	; 59
	movw    r30, r24                // Load addr into Z
     338:	fc 01       	movw	r30, r24
	ldi     r18, CCP_IOREG          // Load magic CCP value
     33a:	28 ed       	ldi	r18, 0xD8	; 216
	out     CCP, r18                // Start CCP handshake
     33c:	24 bf       	out	0x34, r18	; 52
	st      Z, r22                  // Write value to I/O register
     33e:	60 83       	st	Z, r22
	ret                             // Return to caller
     340:	08 95       	ret

00000342 <__vector_10>:
/**
 * \internal
 * \brief Overflow interrupt handling high counter
 */
ISR(RTC_OVF_vect)
{
     342:	1f 92       	push	r1
     344:	0f 92       	push	r0
     346:	0f b6       	in	r0, 0x3f	; 63
     348:	0f 92       	push	r0
     34a:	11 24       	eor	r1, r1
     34c:	08 b6       	in	r0, 0x38	; 56
     34e:	0f 92       	push	r0
     350:	18 be       	out	0x38, r1	; 56
     352:	0b b6       	in	r0, 0x3b	; 59
     354:	0f 92       	push	r0
     356:	1b be       	out	0x3b, r1	; 59
     358:	8f 93       	push	r24
     35a:	9f 93       	push	r25
     35c:	ef 93       	push	r30
     35e:	ff 93       	push	r31
	rtc_data.counter_high++;
     360:	e7 ee       	ldi	r30, 0xE7	; 231
     362:	f0 e2       	ldi	r31, 0x20	; 32
     364:	80 81       	ld	r24, Z
     366:	91 81       	ldd	r25, Z+1	; 0x01
     368:	01 96       	adiw	r24, 0x01	; 1
     36a:	80 83       	st	Z, r24
     36c:	91 83       	std	Z+1, r25	; 0x01
}
     36e:	ff 91       	pop	r31
     370:	ef 91       	pop	r30
     372:	9f 91       	pop	r25
     374:	8f 91       	pop	r24
     376:	0f 90       	pop	r0
     378:	0b be       	out	0x3b, r0	; 59
     37a:	0f 90       	pop	r0
     37c:	08 be       	out	0x38, r0	; 56
     37e:	0f 90       	pop	r0
     380:	0f be       	out	0x3f, r0	; 63
     382:	0f 90       	pop	r0
     384:	1f 90       	pop	r1
     386:	18 95       	reti

00000388 <__vector_11>:
/**
 * \internal
 * \brief Compare interrupt used for alarm
 */
ISR(RTC_COMP_vect)
{
     388:	1f 92       	push	r1
     38a:	0f 92       	push	r0
     38c:	0f b6       	in	r0, 0x3f	; 63
     38e:	0f 92       	push	r0
     390:	11 24       	eor	r1, r1
     392:	08 b6       	in	r0, 0x38	; 56
     394:	0f 92       	push	r0
     396:	18 be       	out	0x38, r1	; 56
     398:	09 b6       	in	r0, 0x39	; 57
     39a:	0f 92       	push	r0
     39c:	19 be       	out	0x39, r1	; 57
     39e:	0b b6       	in	r0, 0x3b	; 59
     3a0:	0f 92       	push	r0
     3a2:	1b be       	out	0x3b, r1	; 59
     3a4:	cf 92       	push	r12
     3a6:	df 92       	push	r13
     3a8:	ef 92       	push	r14
     3aa:	ff 92       	push	r15
     3ac:	0f 93       	push	r16
     3ae:	1f 93       	push	r17
     3b0:	2f 93       	push	r18
     3b2:	3f 93       	push	r19
     3b4:	4f 93       	push	r20
     3b6:	5f 93       	push	r21
     3b8:	6f 93       	push	r22
     3ba:	7f 93       	push	r23
     3bc:	8f 93       	push	r24
     3be:	9f 93       	push	r25
     3c0:	af 93       	push	r26
     3c2:	bf 93       	push	r27
     3c4:	ef 93       	push	r30
     3c6:	ff 93       	push	r31
	if (rtc_data.counter_high >= rtc_data.alarm_high) {
     3c8:	e7 ee       	ldi	r30, 0xE7	; 231
     3ca:	f0 e2       	ldi	r31, 0x20	; 32
     3cc:	80 81       	ld	r24, Z
     3ce:	91 81       	ldd	r25, Z+1	; 0x01
     3d0:	22 81       	ldd	r18, Z+2	; 0x02
     3d2:	33 81       	ldd	r19, Z+3	; 0x03
     3d4:	82 17       	cp	r24, r18
     3d6:	93 07       	cpc	r25, r19
     3d8:	f0 f1       	brcs	.+124    	; 0x456 <__LOCK_REGION_LENGTH__+0x56>
		RTC.INTCTRL = RTC_OVERFLOW_INT_LEVEL;
     3da:	21 e0       	ldi	r18, 0x01	; 1
     3dc:	20 93 02 04 	sts	0x0402, r18	; 0x800402 <__TEXT_REGION_LENGTH__+0x700402>
		if (rtc_data.callback) {
     3e0:	e0 91 ed 20 	lds	r30, 0x20ED	; 0x8020ed <rtc_data+0x6>
     3e4:	f0 91 ee 20 	lds	r31, 0x20EE	; 0x8020ee <rtc_data+0x7>
     3e8:	30 97       	sbiw	r30, 0x00	; 0
     3ea:	a9 f1       	breq	.+106    	; 0x456 <__LOCK_REGION_LENGTH__+0x56>
			uint32_t count = ((uint32_t)rtc_data.counter_high << 16)
					| RTC.CNT;
     3ec:	60 91 08 04 	lds	r22, 0x0408	; 0x800408 <__TEXT_REGION_LENGTH__+0x700408>
     3f0:	70 91 09 04 	lds	r23, 0x0409	; 0x800409 <__TEXT_REGION_LENGTH__+0x700409>
ISR(RTC_COMP_vect)
{
	if (rtc_data.counter_high >= rtc_data.alarm_high) {
		RTC.INTCTRL = RTC_OVERFLOW_INT_LEVEL;
		if (rtc_data.callback) {
			uint32_t count = ((uint32_t)rtc_data.counter_high << 16)
     3f4:	a0 e0       	ldi	r26, 0x00	; 0
     3f6:	b0 e0       	ldi	r27, 0x00	; 0
     3f8:	dc 01       	movw	r26, r24
     3fa:	99 27       	eor	r25, r25
     3fc:	88 27       	eor	r24, r24
     3fe:	ab 01       	movw	r20, r22
     400:	60 e0       	ldi	r22, 0x00	; 0
     402:	70 e0       	ldi	r23, 0x00	; 0
     404:	8c 01       	movw	r16, r24
     406:	9d 01       	movw	r18, r26
     408:	04 2b       	or	r16, r20
     40a:	15 2b       	or	r17, r21
     40c:	26 2b       	or	r18, r22
     40e:	37 2b       	or	r19, r23
     410:	c9 01       	movw	r24, r18
     412:	b8 01       	movw	r22, r16
					| RTC.CNT;
			uint32_t alarm = ((uint32_t)rtc_data.alarm_high << 16)
     414:	a7 ee       	ldi	r26, 0xE7	; 231
     416:	b0 e2       	ldi	r27, 0x20	; 32
     418:	12 96       	adiw	r26, 0x02	; 2
     41a:	0d 91       	ld	r16, X+
     41c:	1c 91       	ld	r17, X
     41e:	13 97       	sbiw	r26, 0x03	; 3
     420:	20 e0       	ldi	r18, 0x00	; 0
     422:	30 e0       	ldi	r19, 0x00	; 0
     424:	98 01       	movw	r18, r16
     426:	11 27       	eor	r17, r17
     428:	00 27       	eor	r16, r16
     42a:	14 96       	adiw	r26, 0x04	; 4
     42c:	cd 90       	ld	r12, X+
     42e:	dc 90       	ld	r13, X
     430:	15 97       	sbiw	r26, 0x05	; 5
     432:	e1 2c       	mov	r14, r1
     434:	f1 2c       	mov	r15, r1
     436:	0c 29       	or	r16, r12
     438:	1d 29       	or	r17, r13
     43a:	2e 29       	or	r18, r14
     43c:	3f 29       	or	r19, r15
					| rtc_data.alarm_low;
			/* Workaround for errata. Count might not be updated
			 * when waking up from sleep, so in this case use alarm
			 * time plus one.
			 */
			if (alarm >= count)
     43e:	06 17       	cp	r16, r22
     440:	17 07       	cpc	r17, r23
     442:	28 07       	cpc	r18, r24
     444:	39 07       	cpc	r19, r25
     446:	30 f0       	brcs	.+12     	; 0x454 <__LOCK_REGION_LENGTH__+0x54>
				count = alarm + 1;
     448:	c9 01       	movw	r24, r18
     44a:	b8 01       	movw	r22, r16
     44c:	6f 5f       	subi	r22, 0xFF	; 255
     44e:	7f 4f       	sbci	r23, 0xFF	; 255
     450:	8f 4f       	sbci	r24, 0xFF	; 255
     452:	9f 4f       	sbci	r25, 0xFF	; 255
			rtc_data.callback(count);
     454:	19 95       	eicall
		}
	}
}
     456:	ff 91       	pop	r31
     458:	ef 91       	pop	r30
     45a:	bf 91       	pop	r27
     45c:	af 91       	pop	r26
     45e:	9f 91       	pop	r25
     460:	8f 91       	pop	r24
     462:	7f 91       	pop	r23
     464:	6f 91       	pop	r22
     466:	5f 91       	pop	r21
     468:	4f 91       	pop	r20
     46a:	3f 91       	pop	r19
     46c:	2f 91       	pop	r18
     46e:	1f 91       	pop	r17
     470:	0f 91       	pop	r16
     472:	ff 90       	pop	r15
     474:	ef 90       	pop	r14
     476:	df 90       	pop	r13
     478:	cf 90       	pop	r12
     47a:	0f 90       	pop	r0
     47c:	0b be       	out	0x3b, r0	; 59
     47e:	0f 90       	pop	r0
     480:	09 be       	out	0x39, r0	; 57
     482:	0f 90       	pop	r0
     484:	08 be       	out	0x38, r0	; 56
     486:	0f 90       	pop	r0
     488:	0f be       	out	0x3f, r0	; 63
     48a:	0f 90       	pop	r0
     48c:	1f 90       	pop	r1
     48e:	18 95       	reti

00000490 <__vector_14>:
 *
 * This function will handle interrupt on Timer Counter CO overflow and
 * call the callback function.
 */
ISR(TCC0_OVF_vect)
{
     490:	1f 92       	push	r1
     492:	0f 92       	push	r0
     494:	0f b6       	in	r0, 0x3f	; 63
     496:	0f 92       	push	r0
     498:	11 24       	eor	r1, r1
     49a:	08 b6       	in	r0, 0x38	; 56
     49c:	0f 92       	push	r0
     49e:	18 be       	out	0x38, r1	; 56
     4a0:	09 b6       	in	r0, 0x39	; 57
     4a2:	0f 92       	push	r0
     4a4:	19 be       	out	0x39, r1	; 57
     4a6:	0b b6       	in	r0, 0x3b	; 59
     4a8:	0f 92       	push	r0
     4aa:	1b be       	out	0x3b, r1	; 59
     4ac:	2f 93       	push	r18
     4ae:	3f 93       	push	r19
     4b0:	4f 93       	push	r20
     4b2:	5f 93       	push	r21
     4b4:	6f 93       	push	r22
     4b6:	7f 93       	push	r23
     4b8:	8f 93       	push	r24
     4ba:	9f 93       	push	r25
     4bc:	af 93       	push	r26
     4be:	bf 93       	push	r27
     4c0:	ef 93       	push	r30
     4c2:	ff 93       	push	r31
	if (tc_tcc0_ovf_callback) {
     4c4:	e0 91 d4 20 	lds	r30, 0x20D4	; 0x8020d4 <tc_tcc0_ovf_callback>
     4c8:	f0 91 d5 20 	lds	r31, 0x20D5	; 0x8020d5 <tc_tcc0_ovf_callback+0x1>
     4cc:	30 97       	sbiw	r30, 0x00	; 0
     4ce:	09 f0       	breq	.+2      	; 0x4d2 <__vector_14+0x42>
		tc_tcc0_ovf_callback();
     4d0:	19 95       	eicall
	}
}
     4d2:	ff 91       	pop	r31
     4d4:	ef 91       	pop	r30
     4d6:	bf 91       	pop	r27
     4d8:	af 91       	pop	r26
     4da:	9f 91       	pop	r25
     4dc:	8f 91       	pop	r24
     4de:	7f 91       	pop	r23
     4e0:	6f 91       	pop	r22
     4e2:	5f 91       	pop	r21
     4e4:	4f 91       	pop	r20
     4e6:	3f 91       	pop	r19
     4e8:	2f 91       	pop	r18
     4ea:	0f 90       	pop	r0
     4ec:	0b be       	out	0x3b, r0	; 59
     4ee:	0f 90       	pop	r0
     4f0:	09 be       	out	0x39, r0	; 57
     4f2:	0f 90       	pop	r0
     4f4:	08 be       	out	0x38, r0	; 56
     4f6:	0f 90       	pop	r0
     4f8:	0f be       	out	0x3f, r0	; 63
     4fa:	0f 90       	pop	r0
     4fc:	1f 90       	pop	r1
     4fe:	18 95       	reti

00000500 <__vector_15>:
 *
 * This function will handle interrupt on Timer Counter CO error and
 * call the callback function.
 */
ISR(TCC0_ERR_vect)
{
     500:	1f 92       	push	r1
     502:	0f 92       	push	r0
     504:	0f b6       	in	r0, 0x3f	; 63
     506:	0f 92       	push	r0
     508:	11 24       	eor	r1, r1
     50a:	08 b6       	in	r0, 0x38	; 56
     50c:	0f 92       	push	r0
     50e:	18 be       	out	0x38, r1	; 56
     510:	09 b6       	in	r0, 0x39	; 57
     512:	0f 92       	push	r0
     514:	19 be       	out	0x39, r1	; 57
     516:	0b b6       	in	r0, 0x3b	; 59
     518:	0f 92       	push	r0
     51a:	1b be       	out	0x3b, r1	; 59
     51c:	2f 93       	push	r18
     51e:	3f 93       	push	r19
     520:	4f 93       	push	r20
     522:	5f 93       	push	r21
     524:	6f 93       	push	r22
     526:	7f 93       	push	r23
     528:	8f 93       	push	r24
     52a:	9f 93       	push	r25
     52c:	af 93       	push	r26
     52e:	bf 93       	push	r27
     530:	ef 93       	push	r30
     532:	ff 93       	push	r31
	if (tc_tcc0_err_callback) {
     534:	e0 91 d2 20 	lds	r30, 0x20D2	; 0x8020d2 <tc_tcc0_err_callback>
     538:	f0 91 d3 20 	lds	r31, 0x20D3	; 0x8020d3 <tc_tcc0_err_callback+0x1>
     53c:	30 97       	sbiw	r30, 0x00	; 0
     53e:	09 f0       	breq	.+2      	; 0x542 <__vector_15+0x42>
		tc_tcc0_err_callback();
     540:	19 95       	eicall
	}
}
     542:	ff 91       	pop	r31
     544:	ef 91       	pop	r30
     546:	bf 91       	pop	r27
     548:	af 91       	pop	r26
     54a:	9f 91       	pop	r25
     54c:	8f 91       	pop	r24
     54e:	7f 91       	pop	r23
     550:	6f 91       	pop	r22
     552:	5f 91       	pop	r21
     554:	4f 91       	pop	r20
     556:	3f 91       	pop	r19
     558:	2f 91       	pop	r18
     55a:	0f 90       	pop	r0
     55c:	0b be       	out	0x3b, r0	; 59
     55e:	0f 90       	pop	r0
     560:	09 be       	out	0x39, r0	; 57
     562:	0f 90       	pop	r0
     564:	08 be       	out	0x38, r0	; 56
     566:	0f 90       	pop	r0
     568:	0f be       	out	0x3f, r0	; 63
     56a:	0f 90       	pop	r0
     56c:	1f 90       	pop	r1
     56e:	18 95       	reti

00000570 <__vector_16>:
 *
 * This function will handle interrupt on Timer Counter CO Compare/CaptureA and
 * call the callback function.
 */
ISR(TCC0_CCA_vect)
{
     570:	1f 92       	push	r1
     572:	0f 92       	push	r0
     574:	0f b6       	in	r0, 0x3f	; 63
     576:	0f 92       	push	r0
     578:	11 24       	eor	r1, r1
     57a:	08 b6       	in	r0, 0x38	; 56
     57c:	0f 92       	push	r0
     57e:	18 be       	out	0x38, r1	; 56
     580:	09 b6       	in	r0, 0x39	; 57
     582:	0f 92       	push	r0
     584:	19 be       	out	0x39, r1	; 57
     586:	0b b6       	in	r0, 0x3b	; 59
     588:	0f 92       	push	r0
     58a:	1b be       	out	0x3b, r1	; 59
     58c:	2f 93       	push	r18
     58e:	3f 93       	push	r19
     590:	4f 93       	push	r20
     592:	5f 93       	push	r21
     594:	6f 93       	push	r22
     596:	7f 93       	push	r23
     598:	8f 93       	push	r24
     59a:	9f 93       	push	r25
     59c:	af 93       	push	r26
     59e:	bf 93       	push	r27
     5a0:	ef 93       	push	r30
     5a2:	ff 93       	push	r31
	if (tc_tcc0_cca_callback) {
     5a4:	e0 91 d0 20 	lds	r30, 0x20D0	; 0x8020d0 <tc_tcc0_cca_callback>
     5a8:	f0 91 d1 20 	lds	r31, 0x20D1	; 0x8020d1 <tc_tcc0_cca_callback+0x1>
     5ac:	30 97       	sbiw	r30, 0x00	; 0
     5ae:	09 f0       	breq	.+2      	; 0x5b2 <__vector_16+0x42>
		tc_tcc0_cca_callback();
     5b0:	19 95       	eicall
	}
}
     5b2:	ff 91       	pop	r31
     5b4:	ef 91       	pop	r30
     5b6:	bf 91       	pop	r27
     5b8:	af 91       	pop	r26
     5ba:	9f 91       	pop	r25
     5bc:	8f 91       	pop	r24
     5be:	7f 91       	pop	r23
     5c0:	6f 91       	pop	r22
     5c2:	5f 91       	pop	r21
     5c4:	4f 91       	pop	r20
     5c6:	3f 91       	pop	r19
     5c8:	2f 91       	pop	r18
     5ca:	0f 90       	pop	r0
     5cc:	0b be       	out	0x3b, r0	; 59
     5ce:	0f 90       	pop	r0
     5d0:	09 be       	out	0x39, r0	; 57
     5d2:	0f 90       	pop	r0
     5d4:	08 be       	out	0x38, r0	; 56
     5d6:	0f 90       	pop	r0
     5d8:	0f be       	out	0x3f, r0	; 63
     5da:	0f 90       	pop	r0
     5dc:	1f 90       	pop	r1
     5de:	18 95       	reti

000005e0 <__vector_17>:
 *
 * This function will handle interrupt on Timer Counter CO Compare/CaptureB and
 * call the callback function.
 */
ISR(TCC0_CCB_vect)
{
     5e0:	1f 92       	push	r1
     5e2:	0f 92       	push	r0
     5e4:	0f b6       	in	r0, 0x3f	; 63
     5e6:	0f 92       	push	r0
     5e8:	11 24       	eor	r1, r1
     5ea:	08 b6       	in	r0, 0x38	; 56
     5ec:	0f 92       	push	r0
     5ee:	18 be       	out	0x38, r1	; 56
     5f0:	09 b6       	in	r0, 0x39	; 57
     5f2:	0f 92       	push	r0
     5f4:	19 be       	out	0x39, r1	; 57
     5f6:	0b b6       	in	r0, 0x3b	; 59
     5f8:	0f 92       	push	r0
     5fa:	1b be       	out	0x3b, r1	; 59
     5fc:	2f 93       	push	r18
     5fe:	3f 93       	push	r19
     600:	4f 93       	push	r20
     602:	5f 93       	push	r21
     604:	6f 93       	push	r22
     606:	7f 93       	push	r23
     608:	8f 93       	push	r24
     60a:	9f 93       	push	r25
     60c:	af 93       	push	r26
     60e:	bf 93       	push	r27
     610:	ef 93       	push	r30
     612:	ff 93       	push	r31
	if (tc_tcc0_ccb_callback) {
     614:	e0 91 ce 20 	lds	r30, 0x20CE	; 0x8020ce <tc_tcc0_ccb_callback>
     618:	f0 91 cf 20 	lds	r31, 0x20CF	; 0x8020cf <tc_tcc0_ccb_callback+0x1>
     61c:	30 97       	sbiw	r30, 0x00	; 0
     61e:	09 f0       	breq	.+2      	; 0x622 <__vector_17+0x42>
		tc_tcc0_ccb_callback();
     620:	19 95       	eicall
	}
}
     622:	ff 91       	pop	r31
     624:	ef 91       	pop	r30
     626:	bf 91       	pop	r27
     628:	af 91       	pop	r26
     62a:	9f 91       	pop	r25
     62c:	8f 91       	pop	r24
     62e:	7f 91       	pop	r23
     630:	6f 91       	pop	r22
     632:	5f 91       	pop	r21
     634:	4f 91       	pop	r20
     636:	3f 91       	pop	r19
     638:	2f 91       	pop	r18
     63a:	0f 90       	pop	r0
     63c:	0b be       	out	0x3b, r0	; 59
     63e:	0f 90       	pop	r0
     640:	09 be       	out	0x39, r0	; 57
     642:	0f 90       	pop	r0
     644:	08 be       	out	0x38, r0	; 56
     646:	0f 90       	pop	r0
     648:	0f be       	out	0x3f, r0	; 63
     64a:	0f 90       	pop	r0
     64c:	1f 90       	pop	r1
     64e:	18 95       	reti

00000650 <__vector_18>:
 *
 * This function will handle interrupt on Timer Counter CO Compare/CaptureC and
 * call the callback function.
 */
ISR(TCC0_CCC_vect)
{
     650:	1f 92       	push	r1
     652:	0f 92       	push	r0
     654:	0f b6       	in	r0, 0x3f	; 63
     656:	0f 92       	push	r0
     658:	11 24       	eor	r1, r1
     65a:	08 b6       	in	r0, 0x38	; 56
     65c:	0f 92       	push	r0
     65e:	18 be       	out	0x38, r1	; 56
     660:	09 b6       	in	r0, 0x39	; 57
     662:	0f 92       	push	r0
     664:	19 be       	out	0x39, r1	; 57
     666:	0b b6       	in	r0, 0x3b	; 59
     668:	0f 92       	push	r0
     66a:	1b be       	out	0x3b, r1	; 59
     66c:	2f 93       	push	r18
     66e:	3f 93       	push	r19
     670:	4f 93       	push	r20
     672:	5f 93       	push	r21
     674:	6f 93       	push	r22
     676:	7f 93       	push	r23
     678:	8f 93       	push	r24
     67a:	9f 93       	push	r25
     67c:	af 93       	push	r26
     67e:	bf 93       	push	r27
     680:	ef 93       	push	r30
     682:	ff 93       	push	r31
	if (tc_tcc0_ccc_callback) {
     684:	e0 91 cc 20 	lds	r30, 0x20CC	; 0x8020cc <tc_tcc0_ccc_callback>
     688:	f0 91 cd 20 	lds	r31, 0x20CD	; 0x8020cd <tc_tcc0_ccc_callback+0x1>
     68c:	30 97       	sbiw	r30, 0x00	; 0
     68e:	09 f0       	breq	.+2      	; 0x692 <__vector_18+0x42>
		tc_tcc0_ccc_callback();
     690:	19 95       	eicall
	}
}
     692:	ff 91       	pop	r31
     694:	ef 91       	pop	r30
     696:	bf 91       	pop	r27
     698:	af 91       	pop	r26
     69a:	9f 91       	pop	r25
     69c:	8f 91       	pop	r24
     69e:	7f 91       	pop	r23
     6a0:	6f 91       	pop	r22
     6a2:	5f 91       	pop	r21
     6a4:	4f 91       	pop	r20
     6a6:	3f 91       	pop	r19
     6a8:	2f 91       	pop	r18
     6aa:	0f 90       	pop	r0
     6ac:	0b be       	out	0x3b, r0	; 59
     6ae:	0f 90       	pop	r0
     6b0:	09 be       	out	0x39, r0	; 57
     6b2:	0f 90       	pop	r0
     6b4:	08 be       	out	0x38, r0	; 56
     6b6:	0f 90       	pop	r0
     6b8:	0f be       	out	0x3f, r0	; 63
     6ba:	0f 90       	pop	r0
     6bc:	1f 90       	pop	r1
     6be:	18 95       	reti

000006c0 <__vector_19>:
 *
 * This function will handle interrupt on Timer Counter CO Compare/CaptureD and
 * call the callback function.
 */
ISR(TCC0_CCD_vect)
{
     6c0:	1f 92       	push	r1
     6c2:	0f 92       	push	r0
     6c4:	0f b6       	in	r0, 0x3f	; 63
     6c6:	0f 92       	push	r0
     6c8:	11 24       	eor	r1, r1
     6ca:	08 b6       	in	r0, 0x38	; 56
     6cc:	0f 92       	push	r0
     6ce:	18 be       	out	0x38, r1	; 56
     6d0:	09 b6       	in	r0, 0x39	; 57
     6d2:	0f 92       	push	r0
     6d4:	19 be       	out	0x39, r1	; 57
     6d6:	0b b6       	in	r0, 0x3b	; 59
     6d8:	0f 92       	push	r0
     6da:	1b be       	out	0x3b, r1	; 59
     6dc:	2f 93       	push	r18
     6de:	3f 93       	push	r19
     6e0:	4f 93       	push	r20
     6e2:	5f 93       	push	r21
     6e4:	6f 93       	push	r22
     6e6:	7f 93       	push	r23
     6e8:	8f 93       	push	r24
     6ea:	9f 93       	push	r25
     6ec:	af 93       	push	r26
     6ee:	bf 93       	push	r27
     6f0:	ef 93       	push	r30
     6f2:	ff 93       	push	r31
	if (tc_tcc0_ccd_callback) {
     6f4:	e0 91 ca 20 	lds	r30, 0x20CA	; 0x8020ca <tc_tcc0_ccd_callback>
     6f8:	f0 91 cb 20 	lds	r31, 0x20CB	; 0x8020cb <tc_tcc0_ccd_callback+0x1>
     6fc:	30 97       	sbiw	r30, 0x00	; 0
     6fe:	09 f0       	breq	.+2      	; 0x702 <__vector_19+0x42>
		tc_tcc0_ccd_callback();
     700:	19 95       	eicall
	}
}
     702:	ff 91       	pop	r31
     704:	ef 91       	pop	r30
     706:	bf 91       	pop	r27
     708:	af 91       	pop	r26
     70a:	9f 91       	pop	r25
     70c:	8f 91       	pop	r24
     70e:	7f 91       	pop	r23
     710:	6f 91       	pop	r22
     712:	5f 91       	pop	r21
     714:	4f 91       	pop	r20
     716:	3f 91       	pop	r19
     718:	2f 91       	pop	r18
     71a:	0f 90       	pop	r0
     71c:	0b be       	out	0x3b, r0	; 59
     71e:	0f 90       	pop	r0
     720:	09 be       	out	0x39, r0	; 57
     722:	0f 90       	pop	r0
     724:	08 be       	out	0x38, r0	; 56
     726:	0f 90       	pop	r0
     728:	0f be       	out	0x3f, r0	; 63
     72a:	0f 90       	pop	r0
     72c:	1f 90       	pop	r1
     72e:	18 95       	reti

00000730 <__vector_20>:
 *
 * This function will handle interrupt on Timer Counter C1 overflow and
 * call the callback function.
 */
ISR(TCC1_OVF_vect)
{
     730:	1f 92       	push	r1
     732:	0f 92       	push	r0
     734:	0f b6       	in	r0, 0x3f	; 63
     736:	0f 92       	push	r0
     738:	11 24       	eor	r1, r1
     73a:	08 b6       	in	r0, 0x38	; 56
     73c:	0f 92       	push	r0
     73e:	18 be       	out	0x38, r1	; 56
     740:	09 b6       	in	r0, 0x39	; 57
     742:	0f 92       	push	r0
     744:	19 be       	out	0x39, r1	; 57
     746:	0b b6       	in	r0, 0x3b	; 59
     748:	0f 92       	push	r0
     74a:	1b be       	out	0x3b, r1	; 59
     74c:	2f 93       	push	r18
     74e:	3f 93       	push	r19
     750:	4f 93       	push	r20
     752:	5f 93       	push	r21
     754:	6f 93       	push	r22
     756:	7f 93       	push	r23
     758:	8f 93       	push	r24
     75a:	9f 93       	push	r25
     75c:	af 93       	push	r26
     75e:	bf 93       	push	r27
     760:	ef 93       	push	r30
     762:	ff 93       	push	r31
	if (tc_tcc1_ovf_callback) {
     764:	e0 91 c8 20 	lds	r30, 0x20C8	; 0x8020c8 <tc_tcc1_ovf_callback>
     768:	f0 91 c9 20 	lds	r31, 0x20C9	; 0x8020c9 <tc_tcc1_ovf_callback+0x1>
     76c:	30 97       	sbiw	r30, 0x00	; 0
     76e:	09 f0       	breq	.+2      	; 0x772 <__vector_20+0x42>
		tc_tcc1_ovf_callback();
     770:	19 95       	eicall
	}
}
     772:	ff 91       	pop	r31
     774:	ef 91       	pop	r30
     776:	bf 91       	pop	r27
     778:	af 91       	pop	r26
     77a:	9f 91       	pop	r25
     77c:	8f 91       	pop	r24
     77e:	7f 91       	pop	r23
     780:	6f 91       	pop	r22
     782:	5f 91       	pop	r21
     784:	4f 91       	pop	r20
     786:	3f 91       	pop	r19
     788:	2f 91       	pop	r18
     78a:	0f 90       	pop	r0
     78c:	0b be       	out	0x3b, r0	; 59
     78e:	0f 90       	pop	r0
     790:	09 be       	out	0x39, r0	; 57
     792:	0f 90       	pop	r0
     794:	08 be       	out	0x38, r0	; 56
     796:	0f 90       	pop	r0
     798:	0f be       	out	0x3f, r0	; 63
     79a:	0f 90       	pop	r0
     79c:	1f 90       	pop	r1
     79e:	18 95       	reti

000007a0 <__vector_21>:
 *
 * This function will handle interrupt on Timer Counter C1 error and
 * call the callback function.
 */
ISR(TCC1_ERR_vect)
{
     7a0:	1f 92       	push	r1
     7a2:	0f 92       	push	r0
     7a4:	0f b6       	in	r0, 0x3f	; 63
     7a6:	0f 92       	push	r0
     7a8:	11 24       	eor	r1, r1
     7aa:	08 b6       	in	r0, 0x38	; 56
     7ac:	0f 92       	push	r0
     7ae:	18 be       	out	0x38, r1	; 56
     7b0:	09 b6       	in	r0, 0x39	; 57
     7b2:	0f 92       	push	r0
     7b4:	19 be       	out	0x39, r1	; 57
     7b6:	0b b6       	in	r0, 0x3b	; 59
     7b8:	0f 92       	push	r0
     7ba:	1b be       	out	0x3b, r1	; 59
     7bc:	2f 93       	push	r18
     7be:	3f 93       	push	r19
     7c0:	4f 93       	push	r20
     7c2:	5f 93       	push	r21
     7c4:	6f 93       	push	r22
     7c6:	7f 93       	push	r23
     7c8:	8f 93       	push	r24
     7ca:	9f 93       	push	r25
     7cc:	af 93       	push	r26
     7ce:	bf 93       	push	r27
     7d0:	ef 93       	push	r30
     7d2:	ff 93       	push	r31
	if (tc_tcc1_err_callback) {
     7d4:	e0 91 c6 20 	lds	r30, 0x20C6	; 0x8020c6 <tc_tcc1_err_callback>
     7d8:	f0 91 c7 20 	lds	r31, 0x20C7	; 0x8020c7 <tc_tcc1_err_callback+0x1>
     7dc:	30 97       	sbiw	r30, 0x00	; 0
     7de:	09 f0       	breq	.+2      	; 0x7e2 <__vector_21+0x42>
		tc_tcc1_err_callback();
     7e0:	19 95       	eicall
	}
}
     7e2:	ff 91       	pop	r31
     7e4:	ef 91       	pop	r30
     7e6:	bf 91       	pop	r27
     7e8:	af 91       	pop	r26
     7ea:	9f 91       	pop	r25
     7ec:	8f 91       	pop	r24
     7ee:	7f 91       	pop	r23
     7f0:	6f 91       	pop	r22
     7f2:	5f 91       	pop	r21
     7f4:	4f 91       	pop	r20
     7f6:	3f 91       	pop	r19
     7f8:	2f 91       	pop	r18
     7fa:	0f 90       	pop	r0
     7fc:	0b be       	out	0x3b, r0	; 59
     7fe:	0f 90       	pop	r0
     800:	09 be       	out	0x39, r0	; 57
     802:	0f 90       	pop	r0
     804:	08 be       	out	0x38, r0	; 56
     806:	0f 90       	pop	r0
     808:	0f be       	out	0x3f, r0	; 63
     80a:	0f 90       	pop	r0
     80c:	1f 90       	pop	r1
     80e:	18 95       	reti

00000810 <__vector_22>:
 *
 * This function will handle interrupt on Timer Counter C1 Compare/CaptureA and
 * call the callback function.
 */
ISR(TCC1_CCA_vect)
{
     810:	1f 92       	push	r1
     812:	0f 92       	push	r0
     814:	0f b6       	in	r0, 0x3f	; 63
     816:	0f 92       	push	r0
     818:	11 24       	eor	r1, r1
     81a:	08 b6       	in	r0, 0x38	; 56
     81c:	0f 92       	push	r0
     81e:	18 be       	out	0x38, r1	; 56
     820:	09 b6       	in	r0, 0x39	; 57
     822:	0f 92       	push	r0
     824:	19 be       	out	0x39, r1	; 57
     826:	0b b6       	in	r0, 0x3b	; 59
     828:	0f 92       	push	r0
     82a:	1b be       	out	0x3b, r1	; 59
     82c:	2f 93       	push	r18
     82e:	3f 93       	push	r19
     830:	4f 93       	push	r20
     832:	5f 93       	push	r21
     834:	6f 93       	push	r22
     836:	7f 93       	push	r23
     838:	8f 93       	push	r24
     83a:	9f 93       	push	r25
     83c:	af 93       	push	r26
     83e:	bf 93       	push	r27
     840:	ef 93       	push	r30
     842:	ff 93       	push	r31
	if (tc_tcc1_cca_callback) {
     844:	e0 91 c4 20 	lds	r30, 0x20C4	; 0x8020c4 <tc_tcc1_cca_callback>
     848:	f0 91 c5 20 	lds	r31, 0x20C5	; 0x8020c5 <tc_tcc1_cca_callback+0x1>
     84c:	30 97       	sbiw	r30, 0x00	; 0
     84e:	09 f0       	breq	.+2      	; 0x852 <__vector_22+0x42>
		tc_tcc1_cca_callback();
     850:	19 95       	eicall
	}
}
     852:	ff 91       	pop	r31
     854:	ef 91       	pop	r30
     856:	bf 91       	pop	r27
     858:	af 91       	pop	r26
     85a:	9f 91       	pop	r25
     85c:	8f 91       	pop	r24
     85e:	7f 91       	pop	r23
     860:	6f 91       	pop	r22
     862:	5f 91       	pop	r21
     864:	4f 91       	pop	r20
     866:	3f 91       	pop	r19
     868:	2f 91       	pop	r18
     86a:	0f 90       	pop	r0
     86c:	0b be       	out	0x3b, r0	; 59
     86e:	0f 90       	pop	r0
     870:	09 be       	out	0x39, r0	; 57
     872:	0f 90       	pop	r0
     874:	08 be       	out	0x38, r0	; 56
     876:	0f 90       	pop	r0
     878:	0f be       	out	0x3f, r0	; 63
     87a:	0f 90       	pop	r0
     87c:	1f 90       	pop	r1
     87e:	18 95       	reti

00000880 <__vector_23>:
 *
 * This function will handle interrupt on Timer Counter C1 Compare/CaptureB and
 * call the callback function.
 */
ISR(TCC1_CCB_vect)
{
     880:	1f 92       	push	r1
     882:	0f 92       	push	r0
     884:	0f b6       	in	r0, 0x3f	; 63
     886:	0f 92       	push	r0
     888:	11 24       	eor	r1, r1
     88a:	08 b6       	in	r0, 0x38	; 56
     88c:	0f 92       	push	r0
     88e:	18 be       	out	0x38, r1	; 56
     890:	09 b6       	in	r0, 0x39	; 57
     892:	0f 92       	push	r0
     894:	19 be       	out	0x39, r1	; 57
     896:	0b b6       	in	r0, 0x3b	; 59
     898:	0f 92       	push	r0
     89a:	1b be       	out	0x3b, r1	; 59
     89c:	2f 93       	push	r18
     89e:	3f 93       	push	r19
     8a0:	4f 93       	push	r20
     8a2:	5f 93       	push	r21
     8a4:	6f 93       	push	r22
     8a6:	7f 93       	push	r23
     8a8:	8f 93       	push	r24
     8aa:	9f 93       	push	r25
     8ac:	af 93       	push	r26
     8ae:	bf 93       	push	r27
     8b0:	ef 93       	push	r30
     8b2:	ff 93       	push	r31
	if (tc_tcc1_ccb_callback) {
     8b4:	e0 91 c2 20 	lds	r30, 0x20C2	; 0x8020c2 <tc_tcc1_ccb_callback>
     8b8:	f0 91 c3 20 	lds	r31, 0x20C3	; 0x8020c3 <tc_tcc1_ccb_callback+0x1>
     8bc:	30 97       	sbiw	r30, 0x00	; 0
     8be:	09 f0       	breq	.+2      	; 0x8c2 <__vector_23+0x42>
		tc_tcc1_ccb_callback();
     8c0:	19 95       	eicall
	}
}
     8c2:	ff 91       	pop	r31
     8c4:	ef 91       	pop	r30
     8c6:	bf 91       	pop	r27
     8c8:	af 91       	pop	r26
     8ca:	9f 91       	pop	r25
     8cc:	8f 91       	pop	r24
     8ce:	7f 91       	pop	r23
     8d0:	6f 91       	pop	r22
     8d2:	5f 91       	pop	r21
     8d4:	4f 91       	pop	r20
     8d6:	3f 91       	pop	r19
     8d8:	2f 91       	pop	r18
     8da:	0f 90       	pop	r0
     8dc:	0b be       	out	0x3b, r0	; 59
     8de:	0f 90       	pop	r0
     8e0:	09 be       	out	0x39, r0	; 57
     8e2:	0f 90       	pop	r0
     8e4:	08 be       	out	0x38, r0	; 56
     8e6:	0f 90       	pop	r0
     8e8:	0f be       	out	0x3f, r0	; 63
     8ea:	0f 90       	pop	r0
     8ec:	1f 90       	pop	r1
     8ee:	18 95       	reti

000008f0 <__vector_77>:
 *
 * This function will handle interrupt on Timer Counter D0 overflow and
 * call the callback function.
 */
ISR(TCD0_OVF_vect)
{
     8f0:	1f 92       	push	r1
     8f2:	0f 92       	push	r0
     8f4:	0f b6       	in	r0, 0x3f	; 63
     8f6:	0f 92       	push	r0
     8f8:	11 24       	eor	r1, r1
     8fa:	08 b6       	in	r0, 0x38	; 56
     8fc:	0f 92       	push	r0
     8fe:	18 be       	out	0x38, r1	; 56
     900:	09 b6       	in	r0, 0x39	; 57
     902:	0f 92       	push	r0
     904:	19 be       	out	0x39, r1	; 57
     906:	0b b6       	in	r0, 0x3b	; 59
     908:	0f 92       	push	r0
     90a:	1b be       	out	0x3b, r1	; 59
     90c:	2f 93       	push	r18
     90e:	3f 93       	push	r19
     910:	4f 93       	push	r20
     912:	5f 93       	push	r21
     914:	6f 93       	push	r22
     916:	7f 93       	push	r23
     918:	8f 93       	push	r24
     91a:	9f 93       	push	r25
     91c:	af 93       	push	r26
     91e:	bf 93       	push	r27
     920:	ef 93       	push	r30
     922:	ff 93       	push	r31
	if (tc_tcd0_ovf_callback) {
     924:	e0 91 c0 20 	lds	r30, 0x20C0	; 0x8020c0 <tc_tcd0_ovf_callback>
     928:	f0 91 c1 20 	lds	r31, 0x20C1	; 0x8020c1 <tc_tcd0_ovf_callback+0x1>
     92c:	30 97       	sbiw	r30, 0x00	; 0
     92e:	09 f0       	breq	.+2      	; 0x932 <__vector_77+0x42>
		tc_tcd0_ovf_callback();
     930:	19 95       	eicall
	}
}
     932:	ff 91       	pop	r31
     934:	ef 91       	pop	r30
     936:	bf 91       	pop	r27
     938:	af 91       	pop	r26
     93a:	9f 91       	pop	r25
     93c:	8f 91       	pop	r24
     93e:	7f 91       	pop	r23
     940:	6f 91       	pop	r22
     942:	5f 91       	pop	r21
     944:	4f 91       	pop	r20
     946:	3f 91       	pop	r19
     948:	2f 91       	pop	r18
     94a:	0f 90       	pop	r0
     94c:	0b be       	out	0x3b, r0	; 59
     94e:	0f 90       	pop	r0
     950:	09 be       	out	0x39, r0	; 57
     952:	0f 90       	pop	r0
     954:	08 be       	out	0x38, r0	; 56
     956:	0f 90       	pop	r0
     958:	0f be       	out	0x3f, r0	; 63
     95a:	0f 90       	pop	r0
     95c:	1f 90       	pop	r1
     95e:	18 95       	reti

00000960 <__vector_78>:
 *
 * This function will handle interrupt on Timer Counter D0 error and
 * call the callback function.
 */
ISR(TCD0_ERR_vect)
{
     960:	1f 92       	push	r1
     962:	0f 92       	push	r0
     964:	0f b6       	in	r0, 0x3f	; 63
     966:	0f 92       	push	r0
     968:	11 24       	eor	r1, r1
     96a:	08 b6       	in	r0, 0x38	; 56
     96c:	0f 92       	push	r0
     96e:	18 be       	out	0x38, r1	; 56
     970:	09 b6       	in	r0, 0x39	; 57
     972:	0f 92       	push	r0
     974:	19 be       	out	0x39, r1	; 57
     976:	0b b6       	in	r0, 0x3b	; 59
     978:	0f 92       	push	r0
     97a:	1b be       	out	0x3b, r1	; 59
     97c:	2f 93       	push	r18
     97e:	3f 93       	push	r19
     980:	4f 93       	push	r20
     982:	5f 93       	push	r21
     984:	6f 93       	push	r22
     986:	7f 93       	push	r23
     988:	8f 93       	push	r24
     98a:	9f 93       	push	r25
     98c:	af 93       	push	r26
     98e:	bf 93       	push	r27
     990:	ef 93       	push	r30
     992:	ff 93       	push	r31
	if (tc_tcd0_err_callback) {
     994:	e0 91 be 20 	lds	r30, 0x20BE	; 0x8020be <tc_tcd0_err_callback>
     998:	f0 91 bf 20 	lds	r31, 0x20BF	; 0x8020bf <tc_tcd0_err_callback+0x1>
     99c:	30 97       	sbiw	r30, 0x00	; 0
     99e:	09 f0       	breq	.+2      	; 0x9a2 <__vector_78+0x42>
		tc_tcd0_err_callback();
     9a0:	19 95       	eicall
	}
}
     9a2:	ff 91       	pop	r31
     9a4:	ef 91       	pop	r30
     9a6:	bf 91       	pop	r27
     9a8:	af 91       	pop	r26
     9aa:	9f 91       	pop	r25
     9ac:	8f 91       	pop	r24
     9ae:	7f 91       	pop	r23
     9b0:	6f 91       	pop	r22
     9b2:	5f 91       	pop	r21
     9b4:	4f 91       	pop	r20
     9b6:	3f 91       	pop	r19
     9b8:	2f 91       	pop	r18
     9ba:	0f 90       	pop	r0
     9bc:	0b be       	out	0x3b, r0	; 59
     9be:	0f 90       	pop	r0
     9c0:	09 be       	out	0x39, r0	; 57
     9c2:	0f 90       	pop	r0
     9c4:	08 be       	out	0x38, r0	; 56
     9c6:	0f 90       	pop	r0
     9c8:	0f be       	out	0x3f, r0	; 63
     9ca:	0f 90       	pop	r0
     9cc:	1f 90       	pop	r1
     9ce:	18 95       	reti

000009d0 <__vector_79>:
 *
 * This function will handle interrupt on Timer Counter D0 Compare/CaptureA and
 * call the callback function.
 */
ISR(TCD0_CCA_vect)
{
     9d0:	1f 92       	push	r1
     9d2:	0f 92       	push	r0
     9d4:	0f b6       	in	r0, 0x3f	; 63
     9d6:	0f 92       	push	r0
     9d8:	11 24       	eor	r1, r1
     9da:	08 b6       	in	r0, 0x38	; 56
     9dc:	0f 92       	push	r0
     9de:	18 be       	out	0x38, r1	; 56
     9e0:	09 b6       	in	r0, 0x39	; 57
     9e2:	0f 92       	push	r0
     9e4:	19 be       	out	0x39, r1	; 57
     9e6:	0b b6       	in	r0, 0x3b	; 59
     9e8:	0f 92       	push	r0
     9ea:	1b be       	out	0x3b, r1	; 59
     9ec:	2f 93       	push	r18
     9ee:	3f 93       	push	r19
     9f0:	4f 93       	push	r20
     9f2:	5f 93       	push	r21
     9f4:	6f 93       	push	r22
     9f6:	7f 93       	push	r23
     9f8:	8f 93       	push	r24
     9fa:	9f 93       	push	r25
     9fc:	af 93       	push	r26
     9fe:	bf 93       	push	r27
     a00:	ef 93       	push	r30
     a02:	ff 93       	push	r31
	if (tc_tcd0_cca_callback) {
     a04:	e0 91 bc 20 	lds	r30, 0x20BC	; 0x8020bc <tc_tcd0_cca_callback>
     a08:	f0 91 bd 20 	lds	r31, 0x20BD	; 0x8020bd <tc_tcd0_cca_callback+0x1>
     a0c:	30 97       	sbiw	r30, 0x00	; 0
     a0e:	09 f0       	breq	.+2      	; 0xa12 <__vector_79+0x42>
		tc_tcd0_cca_callback();
     a10:	19 95       	eicall
	}
}
     a12:	ff 91       	pop	r31
     a14:	ef 91       	pop	r30
     a16:	bf 91       	pop	r27
     a18:	af 91       	pop	r26
     a1a:	9f 91       	pop	r25
     a1c:	8f 91       	pop	r24
     a1e:	7f 91       	pop	r23
     a20:	6f 91       	pop	r22
     a22:	5f 91       	pop	r21
     a24:	4f 91       	pop	r20
     a26:	3f 91       	pop	r19
     a28:	2f 91       	pop	r18
     a2a:	0f 90       	pop	r0
     a2c:	0b be       	out	0x3b, r0	; 59
     a2e:	0f 90       	pop	r0
     a30:	09 be       	out	0x39, r0	; 57
     a32:	0f 90       	pop	r0
     a34:	08 be       	out	0x38, r0	; 56
     a36:	0f 90       	pop	r0
     a38:	0f be       	out	0x3f, r0	; 63
     a3a:	0f 90       	pop	r0
     a3c:	1f 90       	pop	r1
     a3e:	18 95       	reti

00000a40 <__vector_80>:
 *
 * This function will handle interrupt on Timer Counter D0 Compare/CaptureB and
 * call the callback function.
 */
ISR(TCD0_CCB_vect)
{
     a40:	1f 92       	push	r1
     a42:	0f 92       	push	r0
     a44:	0f b6       	in	r0, 0x3f	; 63
     a46:	0f 92       	push	r0
     a48:	11 24       	eor	r1, r1
     a4a:	08 b6       	in	r0, 0x38	; 56
     a4c:	0f 92       	push	r0
     a4e:	18 be       	out	0x38, r1	; 56
     a50:	09 b6       	in	r0, 0x39	; 57
     a52:	0f 92       	push	r0
     a54:	19 be       	out	0x39, r1	; 57
     a56:	0b b6       	in	r0, 0x3b	; 59
     a58:	0f 92       	push	r0
     a5a:	1b be       	out	0x3b, r1	; 59
     a5c:	2f 93       	push	r18
     a5e:	3f 93       	push	r19
     a60:	4f 93       	push	r20
     a62:	5f 93       	push	r21
     a64:	6f 93       	push	r22
     a66:	7f 93       	push	r23
     a68:	8f 93       	push	r24
     a6a:	9f 93       	push	r25
     a6c:	af 93       	push	r26
     a6e:	bf 93       	push	r27
     a70:	ef 93       	push	r30
     a72:	ff 93       	push	r31
	if (tc_tcd0_ccb_callback) {
     a74:	e0 91 ba 20 	lds	r30, 0x20BA	; 0x8020ba <tc_tcd0_ccb_callback>
     a78:	f0 91 bb 20 	lds	r31, 0x20BB	; 0x8020bb <tc_tcd0_ccb_callback+0x1>
     a7c:	30 97       	sbiw	r30, 0x00	; 0
     a7e:	09 f0       	breq	.+2      	; 0xa82 <__vector_80+0x42>
		tc_tcd0_ccb_callback();
     a80:	19 95       	eicall
	}
}
     a82:	ff 91       	pop	r31
     a84:	ef 91       	pop	r30
     a86:	bf 91       	pop	r27
     a88:	af 91       	pop	r26
     a8a:	9f 91       	pop	r25
     a8c:	8f 91       	pop	r24
     a8e:	7f 91       	pop	r23
     a90:	6f 91       	pop	r22
     a92:	5f 91       	pop	r21
     a94:	4f 91       	pop	r20
     a96:	3f 91       	pop	r19
     a98:	2f 91       	pop	r18
     a9a:	0f 90       	pop	r0
     a9c:	0b be       	out	0x3b, r0	; 59
     a9e:	0f 90       	pop	r0
     aa0:	09 be       	out	0x39, r0	; 57
     aa2:	0f 90       	pop	r0
     aa4:	08 be       	out	0x38, r0	; 56
     aa6:	0f 90       	pop	r0
     aa8:	0f be       	out	0x3f, r0	; 63
     aaa:	0f 90       	pop	r0
     aac:	1f 90       	pop	r1
     aae:	18 95       	reti

00000ab0 <__vector_81>:
 *
 * This function will handle interrupt on Timer Counter D0 Compare/CaptureC and
 * call the callback function.
 */
ISR(TCD0_CCC_vect)
{
     ab0:	1f 92       	push	r1
     ab2:	0f 92       	push	r0
     ab4:	0f b6       	in	r0, 0x3f	; 63
     ab6:	0f 92       	push	r0
     ab8:	11 24       	eor	r1, r1
     aba:	08 b6       	in	r0, 0x38	; 56
     abc:	0f 92       	push	r0
     abe:	18 be       	out	0x38, r1	; 56
     ac0:	09 b6       	in	r0, 0x39	; 57
     ac2:	0f 92       	push	r0
     ac4:	19 be       	out	0x39, r1	; 57
     ac6:	0b b6       	in	r0, 0x3b	; 59
     ac8:	0f 92       	push	r0
     aca:	1b be       	out	0x3b, r1	; 59
     acc:	2f 93       	push	r18
     ace:	3f 93       	push	r19
     ad0:	4f 93       	push	r20
     ad2:	5f 93       	push	r21
     ad4:	6f 93       	push	r22
     ad6:	7f 93       	push	r23
     ad8:	8f 93       	push	r24
     ada:	9f 93       	push	r25
     adc:	af 93       	push	r26
     ade:	bf 93       	push	r27
     ae0:	ef 93       	push	r30
     ae2:	ff 93       	push	r31
	if (tc_tcd0_ccc_callback) {
     ae4:	e0 91 b8 20 	lds	r30, 0x20B8	; 0x8020b8 <tc_tcd0_ccc_callback>
     ae8:	f0 91 b9 20 	lds	r31, 0x20B9	; 0x8020b9 <tc_tcd0_ccc_callback+0x1>
     aec:	30 97       	sbiw	r30, 0x00	; 0
     aee:	09 f0       	breq	.+2      	; 0xaf2 <__vector_81+0x42>
		tc_tcd0_ccc_callback();
     af0:	19 95       	eicall
	}
}
     af2:	ff 91       	pop	r31
     af4:	ef 91       	pop	r30
     af6:	bf 91       	pop	r27
     af8:	af 91       	pop	r26
     afa:	9f 91       	pop	r25
     afc:	8f 91       	pop	r24
     afe:	7f 91       	pop	r23
     b00:	6f 91       	pop	r22
     b02:	5f 91       	pop	r21
     b04:	4f 91       	pop	r20
     b06:	3f 91       	pop	r19
     b08:	2f 91       	pop	r18
     b0a:	0f 90       	pop	r0
     b0c:	0b be       	out	0x3b, r0	; 59
     b0e:	0f 90       	pop	r0
     b10:	09 be       	out	0x39, r0	; 57
     b12:	0f 90       	pop	r0
     b14:	08 be       	out	0x38, r0	; 56
     b16:	0f 90       	pop	r0
     b18:	0f be       	out	0x3f, r0	; 63
     b1a:	0f 90       	pop	r0
     b1c:	1f 90       	pop	r1
     b1e:	18 95       	reti

00000b20 <__vector_82>:
 *
 * This function will handle interrupt on Timer Counter D0 Compare/CaptureD and
 * call the callback function.
 */
ISR(TCD0_CCD_vect)
{
     b20:	1f 92       	push	r1
     b22:	0f 92       	push	r0
     b24:	0f b6       	in	r0, 0x3f	; 63
     b26:	0f 92       	push	r0
     b28:	11 24       	eor	r1, r1
     b2a:	08 b6       	in	r0, 0x38	; 56
     b2c:	0f 92       	push	r0
     b2e:	18 be       	out	0x38, r1	; 56
     b30:	09 b6       	in	r0, 0x39	; 57
     b32:	0f 92       	push	r0
     b34:	19 be       	out	0x39, r1	; 57
     b36:	0b b6       	in	r0, 0x3b	; 59
     b38:	0f 92       	push	r0
     b3a:	1b be       	out	0x3b, r1	; 59
     b3c:	2f 93       	push	r18
     b3e:	3f 93       	push	r19
     b40:	4f 93       	push	r20
     b42:	5f 93       	push	r21
     b44:	6f 93       	push	r22
     b46:	7f 93       	push	r23
     b48:	8f 93       	push	r24
     b4a:	9f 93       	push	r25
     b4c:	af 93       	push	r26
     b4e:	bf 93       	push	r27
     b50:	ef 93       	push	r30
     b52:	ff 93       	push	r31
	if (tc_tcd0_ccd_callback) {
     b54:	e0 91 b6 20 	lds	r30, 0x20B6	; 0x8020b6 <tc_tcd0_ccd_callback>
     b58:	f0 91 b7 20 	lds	r31, 0x20B7	; 0x8020b7 <tc_tcd0_ccd_callback+0x1>
     b5c:	30 97       	sbiw	r30, 0x00	; 0
     b5e:	09 f0       	breq	.+2      	; 0xb62 <__vector_82+0x42>
		tc_tcd0_ccd_callback();
     b60:	19 95       	eicall
	}
}
     b62:	ff 91       	pop	r31
     b64:	ef 91       	pop	r30
     b66:	bf 91       	pop	r27
     b68:	af 91       	pop	r26
     b6a:	9f 91       	pop	r25
     b6c:	8f 91       	pop	r24
     b6e:	7f 91       	pop	r23
     b70:	6f 91       	pop	r22
     b72:	5f 91       	pop	r21
     b74:	4f 91       	pop	r20
     b76:	3f 91       	pop	r19
     b78:	2f 91       	pop	r18
     b7a:	0f 90       	pop	r0
     b7c:	0b be       	out	0x3b, r0	; 59
     b7e:	0f 90       	pop	r0
     b80:	09 be       	out	0x39, r0	; 57
     b82:	0f 90       	pop	r0
     b84:	08 be       	out	0x38, r0	; 56
     b86:	0f 90       	pop	r0
     b88:	0f be       	out	0x3f, r0	; 63
     b8a:	0f 90       	pop	r0
     b8c:	1f 90       	pop	r1
     b8e:	18 95       	reti

00000b90 <__vector_83>:
 *
 * This function will handle interrupt on Timer Counter D1 overflow and
 * call the callback function.
 */
ISR(TCD1_OVF_vect)
{
     b90:	1f 92       	push	r1
     b92:	0f 92       	push	r0
     b94:	0f b6       	in	r0, 0x3f	; 63
     b96:	0f 92       	push	r0
     b98:	11 24       	eor	r1, r1
     b9a:	08 b6       	in	r0, 0x38	; 56
     b9c:	0f 92       	push	r0
     b9e:	18 be       	out	0x38, r1	; 56
     ba0:	09 b6       	in	r0, 0x39	; 57
     ba2:	0f 92       	push	r0
     ba4:	19 be       	out	0x39, r1	; 57
     ba6:	0b b6       	in	r0, 0x3b	; 59
     ba8:	0f 92       	push	r0
     baa:	1b be       	out	0x3b, r1	; 59
     bac:	2f 93       	push	r18
     bae:	3f 93       	push	r19
     bb0:	4f 93       	push	r20
     bb2:	5f 93       	push	r21
     bb4:	6f 93       	push	r22
     bb6:	7f 93       	push	r23
     bb8:	8f 93       	push	r24
     bba:	9f 93       	push	r25
     bbc:	af 93       	push	r26
     bbe:	bf 93       	push	r27
     bc0:	ef 93       	push	r30
     bc2:	ff 93       	push	r31
	if (tc_tcd1_ovf_callback) {
     bc4:	e0 91 b4 20 	lds	r30, 0x20B4	; 0x8020b4 <tc_tcd1_ovf_callback>
     bc8:	f0 91 b5 20 	lds	r31, 0x20B5	; 0x8020b5 <tc_tcd1_ovf_callback+0x1>
     bcc:	30 97       	sbiw	r30, 0x00	; 0
     bce:	09 f0       	breq	.+2      	; 0xbd2 <__vector_83+0x42>
		tc_tcd1_ovf_callback();
     bd0:	19 95       	eicall
	}
}
     bd2:	ff 91       	pop	r31
     bd4:	ef 91       	pop	r30
     bd6:	bf 91       	pop	r27
     bd8:	af 91       	pop	r26
     bda:	9f 91       	pop	r25
     bdc:	8f 91       	pop	r24
     bde:	7f 91       	pop	r23
     be0:	6f 91       	pop	r22
     be2:	5f 91       	pop	r21
     be4:	4f 91       	pop	r20
     be6:	3f 91       	pop	r19
     be8:	2f 91       	pop	r18
     bea:	0f 90       	pop	r0
     bec:	0b be       	out	0x3b, r0	; 59
     bee:	0f 90       	pop	r0
     bf0:	09 be       	out	0x39, r0	; 57
     bf2:	0f 90       	pop	r0
     bf4:	08 be       	out	0x38, r0	; 56
     bf6:	0f 90       	pop	r0
     bf8:	0f be       	out	0x3f, r0	; 63
     bfa:	0f 90       	pop	r0
     bfc:	1f 90       	pop	r1
     bfe:	18 95       	reti

00000c00 <__vector_84>:
 *
 * This function will handle interrupt on Timer Counter D1 error and
 * call the callback function.
 */
ISR(TCD1_ERR_vect)
{
     c00:	1f 92       	push	r1
     c02:	0f 92       	push	r0
     c04:	0f b6       	in	r0, 0x3f	; 63
     c06:	0f 92       	push	r0
     c08:	11 24       	eor	r1, r1
     c0a:	08 b6       	in	r0, 0x38	; 56
     c0c:	0f 92       	push	r0
     c0e:	18 be       	out	0x38, r1	; 56
     c10:	09 b6       	in	r0, 0x39	; 57
     c12:	0f 92       	push	r0
     c14:	19 be       	out	0x39, r1	; 57
     c16:	0b b6       	in	r0, 0x3b	; 59
     c18:	0f 92       	push	r0
     c1a:	1b be       	out	0x3b, r1	; 59
     c1c:	2f 93       	push	r18
     c1e:	3f 93       	push	r19
     c20:	4f 93       	push	r20
     c22:	5f 93       	push	r21
     c24:	6f 93       	push	r22
     c26:	7f 93       	push	r23
     c28:	8f 93       	push	r24
     c2a:	9f 93       	push	r25
     c2c:	af 93       	push	r26
     c2e:	bf 93       	push	r27
     c30:	ef 93       	push	r30
     c32:	ff 93       	push	r31
	if (tc_tcd1_err_callback) {
     c34:	e0 91 b2 20 	lds	r30, 0x20B2	; 0x8020b2 <tc_tcd1_err_callback>
     c38:	f0 91 b3 20 	lds	r31, 0x20B3	; 0x8020b3 <tc_tcd1_err_callback+0x1>
     c3c:	30 97       	sbiw	r30, 0x00	; 0
     c3e:	09 f0       	breq	.+2      	; 0xc42 <__vector_84+0x42>
		tc_tcd1_err_callback();
     c40:	19 95       	eicall
	}
}
     c42:	ff 91       	pop	r31
     c44:	ef 91       	pop	r30
     c46:	bf 91       	pop	r27
     c48:	af 91       	pop	r26
     c4a:	9f 91       	pop	r25
     c4c:	8f 91       	pop	r24
     c4e:	7f 91       	pop	r23
     c50:	6f 91       	pop	r22
     c52:	5f 91       	pop	r21
     c54:	4f 91       	pop	r20
     c56:	3f 91       	pop	r19
     c58:	2f 91       	pop	r18
     c5a:	0f 90       	pop	r0
     c5c:	0b be       	out	0x3b, r0	; 59
     c5e:	0f 90       	pop	r0
     c60:	09 be       	out	0x39, r0	; 57
     c62:	0f 90       	pop	r0
     c64:	08 be       	out	0x38, r0	; 56
     c66:	0f 90       	pop	r0
     c68:	0f be       	out	0x3f, r0	; 63
     c6a:	0f 90       	pop	r0
     c6c:	1f 90       	pop	r1
     c6e:	18 95       	reti

00000c70 <__vector_85>:
 *
 * This function will handle interrupt on Timer Counter D1 Compare/CaptureA and
 * call the callback function.
 */
ISR(TCD1_CCA_vect)
{
     c70:	1f 92       	push	r1
     c72:	0f 92       	push	r0
     c74:	0f b6       	in	r0, 0x3f	; 63
     c76:	0f 92       	push	r0
     c78:	11 24       	eor	r1, r1
     c7a:	08 b6       	in	r0, 0x38	; 56
     c7c:	0f 92       	push	r0
     c7e:	18 be       	out	0x38, r1	; 56
     c80:	09 b6       	in	r0, 0x39	; 57
     c82:	0f 92       	push	r0
     c84:	19 be       	out	0x39, r1	; 57
     c86:	0b b6       	in	r0, 0x3b	; 59
     c88:	0f 92       	push	r0
     c8a:	1b be       	out	0x3b, r1	; 59
     c8c:	2f 93       	push	r18
     c8e:	3f 93       	push	r19
     c90:	4f 93       	push	r20
     c92:	5f 93       	push	r21
     c94:	6f 93       	push	r22
     c96:	7f 93       	push	r23
     c98:	8f 93       	push	r24
     c9a:	9f 93       	push	r25
     c9c:	af 93       	push	r26
     c9e:	bf 93       	push	r27
     ca0:	ef 93       	push	r30
     ca2:	ff 93       	push	r31
	if (tc_tcd1_cca_callback) {
     ca4:	e0 91 b0 20 	lds	r30, 0x20B0	; 0x8020b0 <tc_tcd1_cca_callback>
     ca8:	f0 91 b1 20 	lds	r31, 0x20B1	; 0x8020b1 <tc_tcd1_cca_callback+0x1>
     cac:	30 97       	sbiw	r30, 0x00	; 0
     cae:	09 f0       	breq	.+2      	; 0xcb2 <__vector_85+0x42>
		tc_tcd1_cca_callback();
     cb0:	19 95       	eicall
	}
}
     cb2:	ff 91       	pop	r31
     cb4:	ef 91       	pop	r30
     cb6:	bf 91       	pop	r27
     cb8:	af 91       	pop	r26
     cba:	9f 91       	pop	r25
     cbc:	8f 91       	pop	r24
     cbe:	7f 91       	pop	r23
     cc0:	6f 91       	pop	r22
     cc2:	5f 91       	pop	r21
     cc4:	4f 91       	pop	r20
     cc6:	3f 91       	pop	r19
     cc8:	2f 91       	pop	r18
     cca:	0f 90       	pop	r0
     ccc:	0b be       	out	0x3b, r0	; 59
     cce:	0f 90       	pop	r0
     cd0:	09 be       	out	0x39, r0	; 57
     cd2:	0f 90       	pop	r0
     cd4:	08 be       	out	0x38, r0	; 56
     cd6:	0f 90       	pop	r0
     cd8:	0f be       	out	0x3f, r0	; 63
     cda:	0f 90       	pop	r0
     cdc:	1f 90       	pop	r1
     cde:	18 95       	reti

00000ce0 <__vector_86>:
 *
 * This function will handle interrupt on Timer Counter D1 Compare/CaptureB and
 * call the callback function.
 */
ISR(TCD1_CCB_vect)
{
     ce0:	1f 92       	push	r1
     ce2:	0f 92       	push	r0
     ce4:	0f b6       	in	r0, 0x3f	; 63
     ce6:	0f 92       	push	r0
     ce8:	11 24       	eor	r1, r1
     cea:	08 b6       	in	r0, 0x38	; 56
     cec:	0f 92       	push	r0
     cee:	18 be       	out	0x38, r1	; 56
     cf0:	09 b6       	in	r0, 0x39	; 57
     cf2:	0f 92       	push	r0
     cf4:	19 be       	out	0x39, r1	; 57
     cf6:	0b b6       	in	r0, 0x3b	; 59
     cf8:	0f 92       	push	r0
     cfa:	1b be       	out	0x3b, r1	; 59
     cfc:	2f 93       	push	r18
     cfe:	3f 93       	push	r19
     d00:	4f 93       	push	r20
     d02:	5f 93       	push	r21
     d04:	6f 93       	push	r22
     d06:	7f 93       	push	r23
     d08:	8f 93       	push	r24
     d0a:	9f 93       	push	r25
     d0c:	af 93       	push	r26
     d0e:	bf 93       	push	r27
     d10:	ef 93       	push	r30
     d12:	ff 93       	push	r31
	if (tc_tcd1_ccb_callback) {
     d14:	e0 91 ae 20 	lds	r30, 0x20AE	; 0x8020ae <tc_tcd1_ccb_callback>
     d18:	f0 91 af 20 	lds	r31, 0x20AF	; 0x8020af <tc_tcd1_ccb_callback+0x1>
     d1c:	30 97       	sbiw	r30, 0x00	; 0
     d1e:	09 f0       	breq	.+2      	; 0xd22 <__vector_86+0x42>
		tc_tcd1_ccb_callback();
     d20:	19 95       	eicall
	}
}
     d22:	ff 91       	pop	r31
     d24:	ef 91       	pop	r30
     d26:	bf 91       	pop	r27
     d28:	af 91       	pop	r26
     d2a:	9f 91       	pop	r25
     d2c:	8f 91       	pop	r24
     d2e:	7f 91       	pop	r23
     d30:	6f 91       	pop	r22
     d32:	5f 91       	pop	r21
     d34:	4f 91       	pop	r20
     d36:	3f 91       	pop	r19
     d38:	2f 91       	pop	r18
     d3a:	0f 90       	pop	r0
     d3c:	0b be       	out	0x3b, r0	; 59
     d3e:	0f 90       	pop	r0
     d40:	09 be       	out	0x39, r0	; 57
     d42:	0f 90       	pop	r0
     d44:	08 be       	out	0x38, r0	; 56
     d46:	0f 90       	pop	r0
     d48:	0f be       	out	0x3f, r0	; 63
     d4a:	0f 90       	pop	r0
     d4c:	1f 90       	pop	r1
     d4e:	18 95       	reti

00000d50 <__vector_47>:
 *
 * This function will handle interrupt on Timer Counter E0 overflow and
 * call the callback function.
 */
ISR(TCE0_OVF_vect)
{
     d50:	1f 92       	push	r1
     d52:	0f 92       	push	r0
     d54:	0f b6       	in	r0, 0x3f	; 63
     d56:	0f 92       	push	r0
     d58:	11 24       	eor	r1, r1
     d5a:	08 b6       	in	r0, 0x38	; 56
     d5c:	0f 92       	push	r0
     d5e:	18 be       	out	0x38, r1	; 56
     d60:	09 b6       	in	r0, 0x39	; 57
     d62:	0f 92       	push	r0
     d64:	19 be       	out	0x39, r1	; 57
     d66:	0b b6       	in	r0, 0x3b	; 59
     d68:	0f 92       	push	r0
     d6a:	1b be       	out	0x3b, r1	; 59
     d6c:	2f 93       	push	r18
     d6e:	3f 93       	push	r19
     d70:	4f 93       	push	r20
     d72:	5f 93       	push	r21
     d74:	6f 93       	push	r22
     d76:	7f 93       	push	r23
     d78:	8f 93       	push	r24
     d7a:	9f 93       	push	r25
     d7c:	af 93       	push	r26
     d7e:	bf 93       	push	r27
     d80:	ef 93       	push	r30
     d82:	ff 93       	push	r31
	if (tc_tce0_ovf_callback) {
     d84:	e0 91 ac 20 	lds	r30, 0x20AC	; 0x8020ac <tc_tce0_ovf_callback>
     d88:	f0 91 ad 20 	lds	r31, 0x20AD	; 0x8020ad <tc_tce0_ovf_callback+0x1>
     d8c:	30 97       	sbiw	r30, 0x00	; 0
     d8e:	09 f0       	breq	.+2      	; 0xd92 <__vector_47+0x42>
		tc_tce0_ovf_callback();
     d90:	19 95       	eicall
	}
}
     d92:	ff 91       	pop	r31
     d94:	ef 91       	pop	r30
     d96:	bf 91       	pop	r27
     d98:	af 91       	pop	r26
     d9a:	9f 91       	pop	r25
     d9c:	8f 91       	pop	r24
     d9e:	7f 91       	pop	r23
     da0:	6f 91       	pop	r22
     da2:	5f 91       	pop	r21
     da4:	4f 91       	pop	r20
     da6:	3f 91       	pop	r19
     da8:	2f 91       	pop	r18
     daa:	0f 90       	pop	r0
     dac:	0b be       	out	0x3b, r0	; 59
     dae:	0f 90       	pop	r0
     db0:	09 be       	out	0x39, r0	; 57
     db2:	0f 90       	pop	r0
     db4:	08 be       	out	0x38, r0	; 56
     db6:	0f 90       	pop	r0
     db8:	0f be       	out	0x3f, r0	; 63
     dba:	0f 90       	pop	r0
     dbc:	1f 90       	pop	r1
     dbe:	18 95       	reti

00000dc0 <__vector_48>:
 *
 * This function will handle interrupt on Timer Counter E0 error and
 * call the callback function.
 */
ISR(TCE0_ERR_vect)
{
     dc0:	1f 92       	push	r1
     dc2:	0f 92       	push	r0
     dc4:	0f b6       	in	r0, 0x3f	; 63
     dc6:	0f 92       	push	r0
     dc8:	11 24       	eor	r1, r1
     dca:	08 b6       	in	r0, 0x38	; 56
     dcc:	0f 92       	push	r0
     dce:	18 be       	out	0x38, r1	; 56
     dd0:	09 b6       	in	r0, 0x39	; 57
     dd2:	0f 92       	push	r0
     dd4:	19 be       	out	0x39, r1	; 57
     dd6:	0b b6       	in	r0, 0x3b	; 59
     dd8:	0f 92       	push	r0
     dda:	1b be       	out	0x3b, r1	; 59
     ddc:	2f 93       	push	r18
     dde:	3f 93       	push	r19
     de0:	4f 93       	push	r20
     de2:	5f 93       	push	r21
     de4:	6f 93       	push	r22
     de6:	7f 93       	push	r23
     de8:	8f 93       	push	r24
     dea:	9f 93       	push	r25
     dec:	af 93       	push	r26
     dee:	bf 93       	push	r27
     df0:	ef 93       	push	r30
     df2:	ff 93       	push	r31
	if (tc_tce0_err_callback) {
     df4:	e0 91 aa 20 	lds	r30, 0x20AA	; 0x8020aa <tc_tce0_err_callback>
     df8:	f0 91 ab 20 	lds	r31, 0x20AB	; 0x8020ab <tc_tce0_err_callback+0x1>
     dfc:	30 97       	sbiw	r30, 0x00	; 0
     dfe:	09 f0       	breq	.+2      	; 0xe02 <__vector_48+0x42>
		tc_tce0_err_callback();
     e00:	19 95       	eicall
	}
}
     e02:	ff 91       	pop	r31
     e04:	ef 91       	pop	r30
     e06:	bf 91       	pop	r27
     e08:	af 91       	pop	r26
     e0a:	9f 91       	pop	r25
     e0c:	8f 91       	pop	r24
     e0e:	7f 91       	pop	r23
     e10:	6f 91       	pop	r22
     e12:	5f 91       	pop	r21
     e14:	4f 91       	pop	r20
     e16:	3f 91       	pop	r19
     e18:	2f 91       	pop	r18
     e1a:	0f 90       	pop	r0
     e1c:	0b be       	out	0x3b, r0	; 59
     e1e:	0f 90       	pop	r0
     e20:	09 be       	out	0x39, r0	; 57
     e22:	0f 90       	pop	r0
     e24:	08 be       	out	0x38, r0	; 56
     e26:	0f 90       	pop	r0
     e28:	0f be       	out	0x3f, r0	; 63
     e2a:	0f 90       	pop	r0
     e2c:	1f 90       	pop	r1
     e2e:	18 95       	reti

00000e30 <__vector_49>:
 *
 * This function will handle interrupt on Timer Counter E0 Compare/CaptureA and
 * call the callback function.
 */
ISR(TCE0_CCA_vect)
{
     e30:	1f 92       	push	r1
     e32:	0f 92       	push	r0
     e34:	0f b6       	in	r0, 0x3f	; 63
     e36:	0f 92       	push	r0
     e38:	11 24       	eor	r1, r1
     e3a:	08 b6       	in	r0, 0x38	; 56
     e3c:	0f 92       	push	r0
     e3e:	18 be       	out	0x38, r1	; 56
     e40:	09 b6       	in	r0, 0x39	; 57
     e42:	0f 92       	push	r0
     e44:	19 be       	out	0x39, r1	; 57
     e46:	0b b6       	in	r0, 0x3b	; 59
     e48:	0f 92       	push	r0
     e4a:	1b be       	out	0x3b, r1	; 59
     e4c:	2f 93       	push	r18
     e4e:	3f 93       	push	r19
     e50:	4f 93       	push	r20
     e52:	5f 93       	push	r21
     e54:	6f 93       	push	r22
     e56:	7f 93       	push	r23
     e58:	8f 93       	push	r24
     e5a:	9f 93       	push	r25
     e5c:	af 93       	push	r26
     e5e:	bf 93       	push	r27
     e60:	ef 93       	push	r30
     e62:	ff 93       	push	r31
	if (tc_tce0_cca_callback) {
     e64:	e0 91 a8 20 	lds	r30, 0x20A8	; 0x8020a8 <tc_tce0_cca_callback>
     e68:	f0 91 a9 20 	lds	r31, 0x20A9	; 0x8020a9 <tc_tce0_cca_callback+0x1>
     e6c:	30 97       	sbiw	r30, 0x00	; 0
     e6e:	09 f0       	breq	.+2      	; 0xe72 <__vector_49+0x42>
		tc_tce0_cca_callback();
     e70:	19 95       	eicall
	}
}
     e72:	ff 91       	pop	r31
     e74:	ef 91       	pop	r30
     e76:	bf 91       	pop	r27
     e78:	af 91       	pop	r26
     e7a:	9f 91       	pop	r25
     e7c:	8f 91       	pop	r24
     e7e:	7f 91       	pop	r23
     e80:	6f 91       	pop	r22
     e82:	5f 91       	pop	r21
     e84:	4f 91       	pop	r20
     e86:	3f 91       	pop	r19
     e88:	2f 91       	pop	r18
     e8a:	0f 90       	pop	r0
     e8c:	0b be       	out	0x3b, r0	; 59
     e8e:	0f 90       	pop	r0
     e90:	09 be       	out	0x39, r0	; 57
     e92:	0f 90       	pop	r0
     e94:	08 be       	out	0x38, r0	; 56
     e96:	0f 90       	pop	r0
     e98:	0f be       	out	0x3f, r0	; 63
     e9a:	0f 90       	pop	r0
     e9c:	1f 90       	pop	r1
     e9e:	18 95       	reti

00000ea0 <__vector_50>:
 *
 * This function will handle interrupt on Timer Counter E0 Compare/CaptureB and
 * call the callback function.
 */
ISR(TCE0_CCB_vect)
{
     ea0:	1f 92       	push	r1
     ea2:	0f 92       	push	r0
     ea4:	0f b6       	in	r0, 0x3f	; 63
     ea6:	0f 92       	push	r0
     ea8:	11 24       	eor	r1, r1
     eaa:	08 b6       	in	r0, 0x38	; 56
     eac:	0f 92       	push	r0
     eae:	18 be       	out	0x38, r1	; 56
     eb0:	09 b6       	in	r0, 0x39	; 57
     eb2:	0f 92       	push	r0
     eb4:	19 be       	out	0x39, r1	; 57
     eb6:	0b b6       	in	r0, 0x3b	; 59
     eb8:	0f 92       	push	r0
     eba:	1b be       	out	0x3b, r1	; 59
     ebc:	2f 93       	push	r18
     ebe:	3f 93       	push	r19
     ec0:	4f 93       	push	r20
     ec2:	5f 93       	push	r21
     ec4:	6f 93       	push	r22
     ec6:	7f 93       	push	r23
     ec8:	8f 93       	push	r24
     eca:	9f 93       	push	r25
     ecc:	af 93       	push	r26
     ece:	bf 93       	push	r27
     ed0:	ef 93       	push	r30
     ed2:	ff 93       	push	r31
	if (tc_tce0_ccb_callback) {
     ed4:	e0 91 a6 20 	lds	r30, 0x20A6	; 0x8020a6 <tc_tce0_ccb_callback>
     ed8:	f0 91 a7 20 	lds	r31, 0x20A7	; 0x8020a7 <tc_tce0_ccb_callback+0x1>
     edc:	30 97       	sbiw	r30, 0x00	; 0
     ede:	09 f0       	breq	.+2      	; 0xee2 <__vector_50+0x42>
		tc_tce0_ccb_callback();
     ee0:	19 95       	eicall
	}
}
     ee2:	ff 91       	pop	r31
     ee4:	ef 91       	pop	r30
     ee6:	bf 91       	pop	r27
     ee8:	af 91       	pop	r26
     eea:	9f 91       	pop	r25
     eec:	8f 91       	pop	r24
     eee:	7f 91       	pop	r23
     ef0:	6f 91       	pop	r22
     ef2:	5f 91       	pop	r21
     ef4:	4f 91       	pop	r20
     ef6:	3f 91       	pop	r19
     ef8:	2f 91       	pop	r18
     efa:	0f 90       	pop	r0
     efc:	0b be       	out	0x3b, r0	; 59
     efe:	0f 90       	pop	r0
     f00:	09 be       	out	0x39, r0	; 57
     f02:	0f 90       	pop	r0
     f04:	08 be       	out	0x38, r0	; 56
     f06:	0f 90       	pop	r0
     f08:	0f be       	out	0x3f, r0	; 63
     f0a:	0f 90       	pop	r0
     f0c:	1f 90       	pop	r1
     f0e:	18 95       	reti

00000f10 <__vector_51>:
 *
 * This function will handle interrupt on Timer Counter E0 Compare/CaptureC and
 * call the callback function.
 */
ISR(TCE0_CCC_vect)
{
     f10:	1f 92       	push	r1
     f12:	0f 92       	push	r0
     f14:	0f b6       	in	r0, 0x3f	; 63
     f16:	0f 92       	push	r0
     f18:	11 24       	eor	r1, r1
     f1a:	08 b6       	in	r0, 0x38	; 56
     f1c:	0f 92       	push	r0
     f1e:	18 be       	out	0x38, r1	; 56
     f20:	09 b6       	in	r0, 0x39	; 57
     f22:	0f 92       	push	r0
     f24:	19 be       	out	0x39, r1	; 57
     f26:	0b b6       	in	r0, 0x3b	; 59
     f28:	0f 92       	push	r0
     f2a:	1b be       	out	0x3b, r1	; 59
     f2c:	2f 93       	push	r18
     f2e:	3f 93       	push	r19
     f30:	4f 93       	push	r20
     f32:	5f 93       	push	r21
     f34:	6f 93       	push	r22
     f36:	7f 93       	push	r23
     f38:	8f 93       	push	r24
     f3a:	9f 93       	push	r25
     f3c:	af 93       	push	r26
     f3e:	bf 93       	push	r27
     f40:	ef 93       	push	r30
     f42:	ff 93       	push	r31
	if (tc_tce0_ccc_callback) {
     f44:	e0 91 a4 20 	lds	r30, 0x20A4	; 0x8020a4 <tc_tce0_ccc_callback>
     f48:	f0 91 a5 20 	lds	r31, 0x20A5	; 0x8020a5 <tc_tce0_ccc_callback+0x1>
     f4c:	30 97       	sbiw	r30, 0x00	; 0
     f4e:	09 f0       	breq	.+2      	; 0xf52 <__vector_51+0x42>
		tc_tce0_ccc_callback();
     f50:	19 95       	eicall
	}
}
     f52:	ff 91       	pop	r31
     f54:	ef 91       	pop	r30
     f56:	bf 91       	pop	r27
     f58:	af 91       	pop	r26
     f5a:	9f 91       	pop	r25
     f5c:	8f 91       	pop	r24
     f5e:	7f 91       	pop	r23
     f60:	6f 91       	pop	r22
     f62:	5f 91       	pop	r21
     f64:	4f 91       	pop	r20
     f66:	3f 91       	pop	r19
     f68:	2f 91       	pop	r18
     f6a:	0f 90       	pop	r0
     f6c:	0b be       	out	0x3b, r0	; 59
     f6e:	0f 90       	pop	r0
     f70:	09 be       	out	0x39, r0	; 57
     f72:	0f 90       	pop	r0
     f74:	08 be       	out	0x38, r0	; 56
     f76:	0f 90       	pop	r0
     f78:	0f be       	out	0x3f, r0	; 63
     f7a:	0f 90       	pop	r0
     f7c:	1f 90       	pop	r1
     f7e:	18 95       	reti

00000f80 <__vector_52>:
 *
 * This function will handle interrupt on Timer Counter E0 Compare/CaptureD and
 * call the callback function.
 */
ISR(TCE0_CCD_vect)
{
     f80:	1f 92       	push	r1
     f82:	0f 92       	push	r0
     f84:	0f b6       	in	r0, 0x3f	; 63
     f86:	0f 92       	push	r0
     f88:	11 24       	eor	r1, r1
     f8a:	08 b6       	in	r0, 0x38	; 56
     f8c:	0f 92       	push	r0
     f8e:	18 be       	out	0x38, r1	; 56
     f90:	09 b6       	in	r0, 0x39	; 57
     f92:	0f 92       	push	r0
     f94:	19 be       	out	0x39, r1	; 57
     f96:	0b b6       	in	r0, 0x3b	; 59
     f98:	0f 92       	push	r0
     f9a:	1b be       	out	0x3b, r1	; 59
     f9c:	2f 93       	push	r18
     f9e:	3f 93       	push	r19
     fa0:	4f 93       	push	r20
     fa2:	5f 93       	push	r21
     fa4:	6f 93       	push	r22
     fa6:	7f 93       	push	r23
     fa8:	8f 93       	push	r24
     faa:	9f 93       	push	r25
     fac:	af 93       	push	r26
     fae:	bf 93       	push	r27
     fb0:	ef 93       	push	r30
     fb2:	ff 93       	push	r31
	if (tc_tce0_ccd_callback) {
     fb4:	e0 91 a2 20 	lds	r30, 0x20A2	; 0x8020a2 <tc_tce0_ccd_callback>
     fb8:	f0 91 a3 20 	lds	r31, 0x20A3	; 0x8020a3 <tc_tce0_ccd_callback+0x1>
     fbc:	30 97       	sbiw	r30, 0x00	; 0
     fbe:	09 f0       	breq	.+2      	; 0xfc2 <__vector_52+0x42>
		tc_tce0_ccd_callback();
     fc0:	19 95       	eicall
	}
}
     fc2:	ff 91       	pop	r31
     fc4:	ef 91       	pop	r30
     fc6:	bf 91       	pop	r27
     fc8:	af 91       	pop	r26
     fca:	9f 91       	pop	r25
     fcc:	8f 91       	pop	r24
     fce:	7f 91       	pop	r23
     fd0:	6f 91       	pop	r22
     fd2:	5f 91       	pop	r21
     fd4:	4f 91       	pop	r20
     fd6:	3f 91       	pop	r19
     fd8:	2f 91       	pop	r18
     fda:	0f 90       	pop	r0
     fdc:	0b be       	out	0x3b, r0	; 59
     fde:	0f 90       	pop	r0
     fe0:	09 be       	out	0x39, r0	; 57
     fe2:	0f 90       	pop	r0
     fe4:	08 be       	out	0x38, r0	; 56
     fe6:	0f 90       	pop	r0
     fe8:	0f be       	out	0x3f, r0	; 63
     fea:	0f 90       	pop	r0
     fec:	1f 90       	pop	r1
     fee:	18 95       	reti

00000ff0 <__vector_53>:
 *
 * This function will handle interrupt on Timer Counter E1 overflow and
 * call the callback function.
 */
ISR(TCE1_OVF_vect)
{
     ff0:	1f 92       	push	r1
     ff2:	0f 92       	push	r0
     ff4:	0f b6       	in	r0, 0x3f	; 63
     ff6:	0f 92       	push	r0
     ff8:	11 24       	eor	r1, r1
     ffa:	08 b6       	in	r0, 0x38	; 56
     ffc:	0f 92       	push	r0
     ffe:	18 be       	out	0x38, r1	; 56
    1000:	09 b6       	in	r0, 0x39	; 57
    1002:	0f 92       	push	r0
    1004:	19 be       	out	0x39, r1	; 57
    1006:	0b b6       	in	r0, 0x3b	; 59
    1008:	0f 92       	push	r0
    100a:	1b be       	out	0x3b, r1	; 59
    100c:	2f 93       	push	r18
    100e:	3f 93       	push	r19
    1010:	4f 93       	push	r20
    1012:	5f 93       	push	r21
    1014:	6f 93       	push	r22
    1016:	7f 93       	push	r23
    1018:	8f 93       	push	r24
    101a:	9f 93       	push	r25
    101c:	af 93       	push	r26
    101e:	bf 93       	push	r27
    1020:	ef 93       	push	r30
    1022:	ff 93       	push	r31
	if (tc_tce1_ovf_callback) {
    1024:	e0 91 a0 20 	lds	r30, 0x20A0	; 0x8020a0 <tc_tce1_ovf_callback>
    1028:	f0 91 a1 20 	lds	r31, 0x20A1	; 0x8020a1 <tc_tce1_ovf_callback+0x1>
    102c:	30 97       	sbiw	r30, 0x00	; 0
    102e:	09 f0       	breq	.+2      	; 0x1032 <__vector_53+0x42>
		tc_tce1_ovf_callback();
    1030:	19 95       	eicall
	}
}
    1032:	ff 91       	pop	r31
    1034:	ef 91       	pop	r30
    1036:	bf 91       	pop	r27
    1038:	af 91       	pop	r26
    103a:	9f 91       	pop	r25
    103c:	8f 91       	pop	r24
    103e:	7f 91       	pop	r23
    1040:	6f 91       	pop	r22
    1042:	5f 91       	pop	r21
    1044:	4f 91       	pop	r20
    1046:	3f 91       	pop	r19
    1048:	2f 91       	pop	r18
    104a:	0f 90       	pop	r0
    104c:	0b be       	out	0x3b, r0	; 59
    104e:	0f 90       	pop	r0
    1050:	09 be       	out	0x39, r0	; 57
    1052:	0f 90       	pop	r0
    1054:	08 be       	out	0x38, r0	; 56
    1056:	0f 90       	pop	r0
    1058:	0f be       	out	0x3f, r0	; 63
    105a:	0f 90       	pop	r0
    105c:	1f 90       	pop	r1
    105e:	18 95       	reti

00001060 <__vector_54>:
 *
 * This function will handle interrupt on Timer Counter E1 error and
 * call the callback function.
 */
ISR(TCE1_ERR_vect)
{
    1060:	1f 92       	push	r1
    1062:	0f 92       	push	r0
    1064:	0f b6       	in	r0, 0x3f	; 63
    1066:	0f 92       	push	r0
    1068:	11 24       	eor	r1, r1
    106a:	08 b6       	in	r0, 0x38	; 56
    106c:	0f 92       	push	r0
    106e:	18 be       	out	0x38, r1	; 56
    1070:	09 b6       	in	r0, 0x39	; 57
    1072:	0f 92       	push	r0
    1074:	19 be       	out	0x39, r1	; 57
    1076:	0b b6       	in	r0, 0x3b	; 59
    1078:	0f 92       	push	r0
    107a:	1b be       	out	0x3b, r1	; 59
    107c:	2f 93       	push	r18
    107e:	3f 93       	push	r19
    1080:	4f 93       	push	r20
    1082:	5f 93       	push	r21
    1084:	6f 93       	push	r22
    1086:	7f 93       	push	r23
    1088:	8f 93       	push	r24
    108a:	9f 93       	push	r25
    108c:	af 93       	push	r26
    108e:	bf 93       	push	r27
    1090:	ef 93       	push	r30
    1092:	ff 93       	push	r31
	if (tc_tce1_err_callback) {
    1094:	e0 91 9e 20 	lds	r30, 0x209E	; 0x80209e <tc_tce1_err_callback>
    1098:	f0 91 9f 20 	lds	r31, 0x209F	; 0x80209f <tc_tce1_err_callback+0x1>
    109c:	30 97       	sbiw	r30, 0x00	; 0
    109e:	09 f0       	breq	.+2      	; 0x10a2 <__vector_54+0x42>
		tc_tce1_err_callback();
    10a0:	19 95       	eicall
	}
}
    10a2:	ff 91       	pop	r31
    10a4:	ef 91       	pop	r30
    10a6:	bf 91       	pop	r27
    10a8:	af 91       	pop	r26
    10aa:	9f 91       	pop	r25
    10ac:	8f 91       	pop	r24
    10ae:	7f 91       	pop	r23
    10b0:	6f 91       	pop	r22
    10b2:	5f 91       	pop	r21
    10b4:	4f 91       	pop	r20
    10b6:	3f 91       	pop	r19
    10b8:	2f 91       	pop	r18
    10ba:	0f 90       	pop	r0
    10bc:	0b be       	out	0x3b, r0	; 59
    10be:	0f 90       	pop	r0
    10c0:	09 be       	out	0x39, r0	; 57
    10c2:	0f 90       	pop	r0
    10c4:	08 be       	out	0x38, r0	; 56
    10c6:	0f 90       	pop	r0
    10c8:	0f be       	out	0x3f, r0	; 63
    10ca:	0f 90       	pop	r0
    10cc:	1f 90       	pop	r1
    10ce:	18 95       	reti

000010d0 <__vector_55>:
 *
 * This function will handle interrupt on Timer Counter E1 Compare/CaptureA and
 * call the callback function.
 */
ISR(TCE1_CCA_vect)
{
    10d0:	1f 92       	push	r1
    10d2:	0f 92       	push	r0
    10d4:	0f b6       	in	r0, 0x3f	; 63
    10d6:	0f 92       	push	r0
    10d8:	11 24       	eor	r1, r1
    10da:	08 b6       	in	r0, 0x38	; 56
    10dc:	0f 92       	push	r0
    10de:	18 be       	out	0x38, r1	; 56
    10e0:	09 b6       	in	r0, 0x39	; 57
    10e2:	0f 92       	push	r0
    10e4:	19 be       	out	0x39, r1	; 57
    10e6:	0b b6       	in	r0, 0x3b	; 59
    10e8:	0f 92       	push	r0
    10ea:	1b be       	out	0x3b, r1	; 59
    10ec:	2f 93       	push	r18
    10ee:	3f 93       	push	r19
    10f0:	4f 93       	push	r20
    10f2:	5f 93       	push	r21
    10f4:	6f 93       	push	r22
    10f6:	7f 93       	push	r23
    10f8:	8f 93       	push	r24
    10fa:	9f 93       	push	r25
    10fc:	af 93       	push	r26
    10fe:	bf 93       	push	r27
    1100:	ef 93       	push	r30
    1102:	ff 93       	push	r31
	if (tc_tce1_cca_callback) {
    1104:	e0 91 9c 20 	lds	r30, 0x209C	; 0x80209c <tc_tce1_cca_callback>
    1108:	f0 91 9d 20 	lds	r31, 0x209D	; 0x80209d <tc_tce1_cca_callback+0x1>
    110c:	30 97       	sbiw	r30, 0x00	; 0
    110e:	09 f0       	breq	.+2      	; 0x1112 <__vector_55+0x42>
		tc_tce1_cca_callback();
    1110:	19 95       	eicall
	}
}
    1112:	ff 91       	pop	r31
    1114:	ef 91       	pop	r30
    1116:	bf 91       	pop	r27
    1118:	af 91       	pop	r26
    111a:	9f 91       	pop	r25
    111c:	8f 91       	pop	r24
    111e:	7f 91       	pop	r23
    1120:	6f 91       	pop	r22
    1122:	5f 91       	pop	r21
    1124:	4f 91       	pop	r20
    1126:	3f 91       	pop	r19
    1128:	2f 91       	pop	r18
    112a:	0f 90       	pop	r0
    112c:	0b be       	out	0x3b, r0	; 59
    112e:	0f 90       	pop	r0
    1130:	09 be       	out	0x39, r0	; 57
    1132:	0f 90       	pop	r0
    1134:	08 be       	out	0x38, r0	; 56
    1136:	0f 90       	pop	r0
    1138:	0f be       	out	0x3f, r0	; 63
    113a:	0f 90       	pop	r0
    113c:	1f 90       	pop	r1
    113e:	18 95       	reti

00001140 <__vector_56>:
 *
 * This function will handle interrupt on Timer Counter E1 Compare/CaptureB and
 * call the callback function.
 */
ISR(TCE1_CCB_vect)
{
    1140:	1f 92       	push	r1
    1142:	0f 92       	push	r0
    1144:	0f b6       	in	r0, 0x3f	; 63
    1146:	0f 92       	push	r0
    1148:	11 24       	eor	r1, r1
    114a:	08 b6       	in	r0, 0x38	; 56
    114c:	0f 92       	push	r0
    114e:	18 be       	out	0x38, r1	; 56
    1150:	09 b6       	in	r0, 0x39	; 57
    1152:	0f 92       	push	r0
    1154:	19 be       	out	0x39, r1	; 57
    1156:	0b b6       	in	r0, 0x3b	; 59
    1158:	0f 92       	push	r0
    115a:	1b be       	out	0x3b, r1	; 59
    115c:	2f 93       	push	r18
    115e:	3f 93       	push	r19
    1160:	4f 93       	push	r20
    1162:	5f 93       	push	r21
    1164:	6f 93       	push	r22
    1166:	7f 93       	push	r23
    1168:	8f 93       	push	r24
    116a:	9f 93       	push	r25
    116c:	af 93       	push	r26
    116e:	bf 93       	push	r27
    1170:	ef 93       	push	r30
    1172:	ff 93       	push	r31
	if (tc_tce1_ccb_callback) {
    1174:	e0 91 9a 20 	lds	r30, 0x209A	; 0x80209a <tc_tce1_ccb_callback>
    1178:	f0 91 9b 20 	lds	r31, 0x209B	; 0x80209b <tc_tce1_ccb_callback+0x1>
    117c:	30 97       	sbiw	r30, 0x00	; 0
    117e:	09 f0       	breq	.+2      	; 0x1182 <__vector_56+0x42>
		tc_tce1_ccb_callback();
    1180:	19 95       	eicall
	}
}
    1182:	ff 91       	pop	r31
    1184:	ef 91       	pop	r30
    1186:	bf 91       	pop	r27
    1188:	af 91       	pop	r26
    118a:	9f 91       	pop	r25
    118c:	8f 91       	pop	r24
    118e:	7f 91       	pop	r23
    1190:	6f 91       	pop	r22
    1192:	5f 91       	pop	r21
    1194:	4f 91       	pop	r20
    1196:	3f 91       	pop	r19
    1198:	2f 91       	pop	r18
    119a:	0f 90       	pop	r0
    119c:	0b be       	out	0x3b, r0	; 59
    119e:	0f 90       	pop	r0
    11a0:	09 be       	out	0x39, r0	; 57
    11a2:	0f 90       	pop	r0
    11a4:	08 be       	out	0x38, r0	; 56
    11a6:	0f 90       	pop	r0
    11a8:	0f be       	out	0x3f, r0	; 63
    11aa:	0f 90       	pop	r0
    11ac:	1f 90       	pop	r1
    11ae:	18 95       	reti

000011b0 <__vector_108>:
 *
 * This function will handle interrupt on Timer Counter F0 overflow and
 * call the callback function.
 */
ISR(TCF0_OVF_vect)
{
    11b0:	1f 92       	push	r1
    11b2:	0f 92       	push	r0
    11b4:	0f b6       	in	r0, 0x3f	; 63
    11b6:	0f 92       	push	r0
    11b8:	11 24       	eor	r1, r1
    11ba:	08 b6       	in	r0, 0x38	; 56
    11bc:	0f 92       	push	r0
    11be:	18 be       	out	0x38, r1	; 56
    11c0:	09 b6       	in	r0, 0x39	; 57
    11c2:	0f 92       	push	r0
    11c4:	19 be       	out	0x39, r1	; 57
    11c6:	0b b6       	in	r0, 0x3b	; 59
    11c8:	0f 92       	push	r0
    11ca:	1b be       	out	0x3b, r1	; 59
    11cc:	2f 93       	push	r18
    11ce:	3f 93       	push	r19
    11d0:	4f 93       	push	r20
    11d2:	5f 93       	push	r21
    11d4:	6f 93       	push	r22
    11d6:	7f 93       	push	r23
    11d8:	8f 93       	push	r24
    11da:	9f 93       	push	r25
    11dc:	af 93       	push	r26
    11de:	bf 93       	push	r27
    11e0:	ef 93       	push	r30
    11e2:	ff 93       	push	r31
	if (tc_tcf0_ovf_callback) {
    11e4:	e0 91 98 20 	lds	r30, 0x2098	; 0x802098 <tc_tcf0_ovf_callback>
    11e8:	f0 91 99 20 	lds	r31, 0x2099	; 0x802099 <tc_tcf0_ovf_callback+0x1>
    11ec:	30 97       	sbiw	r30, 0x00	; 0
    11ee:	09 f0       	breq	.+2      	; 0x11f2 <__vector_108+0x42>
		tc_tcf0_ovf_callback();
    11f0:	19 95       	eicall
	}
}
    11f2:	ff 91       	pop	r31
    11f4:	ef 91       	pop	r30
    11f6:	bf 91       	pop	r27
    11f8:	af 91       	pop	r26
    11fa:	9f 91       	pop	r25
    11fc:	8f 91       	pop	r24
    11fe:	7f 91       	pop	r23
    1200:	6f 91       	pop	r22
    1202:	5f 91       	pop	r21
    1204:	4f 91       	pop	r20
    1206:	3f 91       	pop	r19
    1208:	2f 91       	pop	r18
    120a:	0f 90       	pop	r0
    120c:	0b be       	out	0x3b, r0	; 59
    120e:	0f 90       	pop	r0
    1210:	09 be       	out	0x39, r0	; 57
    1212:	0f 90       	pop	r0
    1214:	08 be       	out	0x38, r0	; 56
    1216:	0f 90       	pop	r0
    1218:	0f be       	out	0x3f, r0	; 63
    121a:	0f 90       	pop	r0
    121c:	1f 90       	pop	r1
    121e:	18 95       	reti

00001220 <__vector_109>:
 *
 * This function will handle interrupt on Timer Counter F0 error and
 * call the callback function.
 */
ISR(TCF0_ERR_vect)
{
    1220:	1f 92       	push	r1
    1222:	0f 92       	push	r0
    1224:	0f b6       	in	r0, 0x3f	; 63
    1226:	0f 92       	push	r0
    1228:	11 24       	eor	r1, r1
    122a:	08 b6       	in	r0, 0x38	; 56
    122c:	0f 92       	push	r0
    122e:	18 be       	out	0x38, r1	; 56
    1230:	09 b6       	in	r0, 0x39	; 57
    1232:	0f 92       	push	r0
    1234:	19 be       	out	0x39, r1	; 57
    1236:	0b b6       	in	r0, 0x3b	; 59
    1238:	0f 92       	push	r0
    123a:	1b be       	out	0x3b, r1	; 59
    123c:	2f 93       	push	r18
    123e:	3f 93       	push	r19
    1240:	4f 93       	push	r20
    1242:	5f 93       	push	r21
    1244:	6f 93       	push	r22
    1246:	7f 93       	push	r23
    1248:	8f 93       	push	r24
    124a:	9f 93       	push	r25
    124c:	af 93       	push	r26
    124e:	bf 93       	push	r27
    1250:	ef 93       	push	r30
    1252:	ff 93       	push	r31
	if (tc_tcf0_err_callback) {
    1254:	e0 91 96 20 	lds	r30, 0x2096	; 0x802096 <tc_tcf0_err_callback>
    1258:	f0 91 97 20 	lds	r31, 0x2097	; 0x802097 <tc_tcf0_err_callback+0x1>
    125c:	30 97       	sbiw	r30, 0x00	; 0
    125e:	09 f0       	breq	.+2      	; 0x1262 <__vector_109+0x42>
		tc_tcf0_err_callback();
    1260:	19 95       	eicall
	}
}
    1262:	ff 91       	pop	r31
    1264:	ef 91       	pop	r30
    1266:	bf 91       	pop	r27
    1268:	af 91       	pop	r26
    126a:	9f 91       	pop	r25
    126c:	8f 91       	pop	r24
    126e:	7f 91       	pop	r23
    1270:	6f 91       	pop	r22
    1272:	5f 91       	pop	r21
    1274:	4f 91       	pop	r20
    1276:	3f 91       	pop	r19
    1278:	2f 91       	pop	r18
    127a:	0f 90       	pop	r0
    127c:	0b be       	out	0x3b, r0	; 59
    127e:	0f 90       	pop	r0
    1280:	09 be       	out	0x39, r0	; 57
    1282:	0f 90       	pop	r0
    1284:	08 be       	out	0x38, r0	; 56
    1286:	0f 90       	pop	r0
    1288:	0f be       	out	0x3f, r0	; 63
    128a:	0f 90       	pop	r0
    128c:	1f 90       	pop	r1
    128e:	18 95       	reti

00001290 <__vector_110>:
 *
 * This function will handle interrupt on Timer Counter F0 Compare/CaptureA and
 * call the callback function.
 */
ISR(TCF0_CCA_vect)
{
    1290:	1f 92       	push	r1
    1292:	0f 92       	push	r0
    1294:	0f b6       	in	r0, 0x3f	; 63
    1296:	0f 92       	push	r0
    1298:	11 24       	eor	r1, r1
    129a:	08 b6       	in	r0, 0x38	; 56
    129c:	0f 92       	push	r0
    129e:	18 be       	out	0x38, r1	; 56
    12a0:	09 b6       	in	r0, 0x39	; 57
    12a2:	0f 92       	push	r0
    12a4:	19 be       	out	0x39, r1	; 57
    12a6:	0b b6       	in	r0, 0x3b	; 59
    12a8:	0f 92       	push	r0
    12aa:	1b be       	out	0x3b, r1	; 59
    12ac:	2f 93       	push	r18
    12ae:	3f 93       	push	r19
    12b0:	4f 93       	push	r20
    12b2:	5f 93       	push	r21
    12b4:	6f 93       	push	r22
    12b6:	7f 93       	push	r23
    12b8:	8f 93       	push	r24
    12ba:	9f 93       	push	r25
    12bc:	af 93       	push	r26
    12be:	bf 93       	push	r27
    12c0:	ef 93       	push	r30
    12c2:	ff 93       	push	r31
	if (tc_tcf0_cca_callback) {
    12c4:	e0 91 94 20 	lds	r30, 0x2094	; 0x802094 <tc_tcf0_cca_callback>
    12c8:	f0 91 95 20 	lds	r31, 0x2095	; 0x802095 <tc_tcf0_cca_callback+0x1>
    12cc:	30 97       	sbiw	r30, 0x00	; 0
    12ce:	09 f0       	breq	.+2      	; 0x12d2 <__vector_110+0x42>
		tc_tcf0_cca_callback();
    12d0:	19 95       	eicall
	}
}
    12d2:	ff 91       	pop	r31
    12d4:	ef 91       	pop	r30
    12d6:	bf 91       	pop	r27
    12d8:	af 91       	pop	r26
    12da:	9f 91       	pop	r25
    12dc:	8f 91       	pop	r24
    12de:	7f 91       	pop	r23
    12e0:	6f 91       	pop	r22
    12e2:	5f 91       	pop	r21
    12e4:	4f 91       	pop	r20
    12e6:	3f 91       	pop	r19
    12e8:	2f 91       	pop	r18
    12ea:	0f 90       	pop	r0
    12ec:	0b be       	out	0x3b, r0	; 59
    12ee:	0f 90       	pop	r0
    12f0:	09 be       	out	0x39, r0	; 57
    12f2:	0f 90       	pop	r0
    12f4:	08 be       	out	0x38, r0	; 56
    12f6:	0f 90       	pop	r0
    12f8:	0f be       	out	0x3f, r0	; 63
    12fa:	0f 90       	pop	r0
    12fc:	1f 90       	pop	r1
    12fe:	18 95       	reti

00001300 <__vector_111>:
 *
 * This function will handle interrupt on Timer Counter F0 Compare/CaptureB and
 * call the callback function.
 */
ISR(TCF0_CCB_vect)
{
    1300:	1f 92       	push	r1
    1302:	0f 92       	push	r0
    1304:	0f b6       	in	r0, 0x3f	; 63
    1306:	0f 92       	push	r0
    1308:	11 24       	eor	r1, r1
    130a:	08 b6       	in	r0, 0x38	; 56
    130c:	0f 92       	push	r0
    130e:	18 be       	out	0x38, r1	; 56
    1310:	09 b6       	in	r0, 0x39	; 57
    1312:	0f 92       	push	r0
    1314:	19 be       	out	0x39, r1	; 57
    1316:	0b b6       	in	r0, 0x3b	; 59
    1318:	0f 92       	push	r0
    131a:	1b be       	out	0x3b, r1	; 59
    131c:	2f 93       	push	r18
    131e:	3f 93       	push	r19
    1320:	4f 93       	push	r20
    1322:	5f 93       	push	r21
    1324:	6f 93       	push	r22
    1326:	7f 93       	push	r23
    1328:	8f 93       	push	r24
    132a:	9f 93       	push	r25
    132c:	af 93       	push	r26
    132e:	bf 93       	push	r27
    1330:	ef 93       	push	r30
    1332:	ff 93       	push	r31
	if (tc_tcf0_ccb_callback) {
    1334:	e0 91 92 20 	lds	r30, 0x2092	; 0x802092 <tc_tcf0_ccb_callback>
    1338:	f0 91 93 20 	lds	r31, 0x2093	; 0x802093 <tc_tcf0_ccb_callback+0x1>
    133c:	30 97       	sbiw	r30, 0x00	; 0
    133e:	09 f0       	breq	.+2      	; 0x1342 <__vector_111+0x42>
		tc_tcf0_ccb_callback();
    1340:	19 95       	eicall
	}
}
    1342:	ff 91       	pop	r31
    1344:	ef 91       	pop	r30
    1346:	bf 91       	pop	r27
    1348:	af 91       	pop	r26
    134a:	9f 91       	pop	r25
    134c:	8f 91       	pop	r24
    134e:	7f 91       	pop	r23
    1350:	6f 91       	pop	r22
    1352:	5f 91       	pop	r21
    1354:	4f 91       	pop	r20
    1356:	3f 91       	pop	r19
    1358:	2f 91       	pop	r18
    135a:	0f 90       	pop	r0
    135c:	0b be       	out	0x3b, r0	; 59
    135e:	0f 90       	pop	r0
    1360:	09 be       	out	0x39, r0	; 57
    1362:	0f 90       	pop	r0
    1364:	08 be       	out	0x38, r0	; 56
    1366:	0f 90       	pop	r0
    1368:	0f be       	out	0x3f, r0	; 63
    136a:	0f 90       	pop	r0
    136c:	1f 90       	pop	r1
    136e:	18 95       	reti

00001370 <__vector_112>:
 *
 * This function will handle interrupt on Timer Counter F0 Compare/CaptureC and
 * call the callback function.
 */
ISR(TCF0_CCC_vect)
{
    1370:	1f 92       	push	r1
    1372:	0f 92       	push	r0
    1374:	0f b6       	in	r0, 0x3f	; 63
    1376:	0f 92       	push	r0
    1378:	11 24       	eor	r1, r1
    137a:	08 b6       	in	r0, 0x38	; 56
    137c:	0f 92       	push	r0
    137e:	18 be       	out	0x38, r1	; 56
    1380:	09 b6       	in	r0, 0x39	; 57
    1382:	0f 92       	push	r0
    1384:	19 be       	out	0x39, r1	; 57
    1386:	0b b6       	in	r0, 0x3b	; 59
    1388:	0f 92       	push	r0
    138a:	1b be       	out	0x3b, r1	; 59
    138c:	2f 93       	push	r18
    138e:	3f 93       	push	r19
    1390:	4f 93       	push	r20
    1392:	5f 93       	push	r21
    1394:	6f 93       	push	r22
    1396:	7f 93       	push	r23
    1398:	8f 93       	push	r24
    139a:	9f 93       	push	r25
    139c:	af 93       	push	r26
    139e:	bf 93       	push	r27
    13a0:	ef 93       	push	r30
    13a2:	ff 93       	push	r31
	if (tc_tcf0_ccc_callback) {
    13a4:	e0 91 90 20 	lds	r30, 0x2090	; 0x802090 <tc_tcf0_ccc_callback>
    13a8:	f0 91 91 20 	lds	r31, 0x2091	; 0x802091 <tc_tcf0_ccc_callback+0x1>
    13ac:	30 97       	sbiw	r30, 0x00	; 0
    13ae:	09 f0       	breq	.+2      	; 0x13b2 <__vector_112+0x42>
		tc_tcf0_ccc_callback();
    13b0:	19 95       	eicall
	}
}
    13b2:	ff 91       	pop	r31
    13b4:	ef 91       	pop	r30
    13b6:	bf 91       	pop	r27
    13b8:	af 91       	pop	r26
    13ba:	9f 91       	pop	r25
    13bc:	8f 91       	pop	r24
    13be:	7f 91       	pop	r23
    13c0:	6f 91       	pop	r22
    13c2:	5f 91       	pop	r21
    13c4:	4f 91       	pop	r20
    13c6:	3f 91       	pop	r19
    13c8:	2f 91       	pop	r18
    13ca:	0f 90       	pop	r0
    13cc:	0b be       	out	0x3b, r0	; 59
    13ce:	0f 90       	pop	r0
    13d0:	09 be       	out	0x39, r0	; 57
    13d2:	0f 90       	pop	r0
    13d4:	08 be       	out	0x38, r0	; 56
    13d6:	0f 90       	pop	r0
    13d8:	0f be       	out	0x3f, r0	; 63
    13da:	0f 90       	pop	r0
    13dc:	1f 90       	pop	r1
    13de:	18 95       	reti

000013e0 <__vector_113>:
 *
 * This function will handle interrupt on Timer Counter F0 Compare/CaptureD and
 * call the callback function.
 */
ISR(TCF0_CCD_vect)
{
    13e0:	1f 92       	push	r1
    13e2:	0f 92       	push	r0
    13e4:	0f b6       	in	r0, 0x3f	; 63
    13e6:	0f 92       	push	r0
    13e8:	11 24       	eor	r1, r1
    13ea:	08 b6       	in	r0, 0x38	; 56
    13ec:	0f 92       	push	r0
    13ee:	18 be       	out	0x38, r1	; 56
    13f0:	09 b6       	in	r0, 0x39	; 57
    13f2:	0f 92       	push	r0
    13f4:	19 be       	out	0x39, r1	; 57
    13f6:	0b b6       	in	r0, 0x3b	; 59
    13f8:	0f 92       	push	r0
    13fa:	1b be       	out	0x3b, r1	; 59
    13fc:	2f 93       	push	r18
    13fe:	3f 93       	push	r19
    1400:	4f 93       	push	r20
    1402:	5f 93       	push	r21
    1404:	6f 93       	push	r22
    1406:	7f 93       	push	r23
    1408:	8f 93       	push	r24
    140a:	9f 93       	push	r25
    140c:	af 93       	push	r26
    140e:	bf 93       	push	r27
    1410:	ef 93       	push	r30
    1412:	ff 93       	push	r31
	if (tc_tcf0_ccd_callback) {
    1414:	e0 91 8e 20 	lds	r30, 0x208E	; 0x80208e <tc_tcf0_ccd_callback>
    1418:	f0 91 8f 20 	lds	r31, 0x208F	; 0x80208f <tc_tcf0_ccd_callback+0x1>
    141c:	30 97       	sbiw	r30, 0x00	; 0
    141e:	09 f0       	breq	.+2      	; 0x1422 <__vector_113+0x42>
		tc_tcf0_ccd_callback();
    1420:	19 95       	eicall
	}
}
    1422:	ff 91       	pop	r31
    1424:	ef 91       	pop	r30
    1426:	bf 91       	pop	r27
    1428:	af 91       	pop	r26
    142a:	9f 91       	pop	r25
    142c:	8f 91       	pop	r24
    142e:	7f 91       	pop	r23
    1430:	6f 91       	pop	r22
    1432:	5f 91       	pop	r21
    1434:	4f 91       	pop	r20
    1436:	3f 91       	pop	r19
    1438:	2f 91       	pop	r18
    143a:	0f 90       	pop	r0
    143c:	0b be       	out	0x3b, r0	; 59
    143e:	0f 90       	pop	r0
    1440:	09 be       	out	0x39, r0	; 57
    1442:	0f 90       	pop	r0
    1444:	08 be       	out	0x38, r0	; 56
    1446:	0f 90       	pop	r0
    1448:	0f be       	out	0x3f, r0	; 63
    144a:	0f 90       	pop	r0
    144c:	1f 90       	pop	r1
    144e:	18 95       	reti

00001450 <__vector_114>:
 *
 * This function will handle interrupt on Timer Counter F1 overflow and
 * call the callback function.
 */
ISR(TCF1_OVF_vect)
{
    1450:	1f 92       	push	r1
    1452:	0f 92       	push	r0
    1454:	0f b6       	in	r0, 0x3f	; 63
    1456:	0f 92       	push	r0
    1458:	11 24       	eor	r1, r1
    145a:	08 b6       	in	r0, 0x38	; 56
    145c:	0f 92       	push	r0
    145e:	18 be       	out	0x38, r1	; 56
    1460:	09 b6       	in	r0, 0x39	; 57
    1462:	0f 92       	push	r0
    1464:	19 be       	out	0x39, r1	; 57
    1466:	0b b6       	in	r0, 0x3b	; 59
    1468:	0f 92       	push	r0
    146a:	1b be       	out	0x3b, r1	; 59
    146c:	2f 93       	push	r18
    146e:	3f 93       	push	r19
    1470:	4f 93       	push	r20
    1472:	5f 93       	push	r21
    1474:	6f 93       	push	r22
    1476:	7f 93       	push	r23
    1478:	8f 93       	push	r24
    147a:	9f 93       	push	r25
    147c:	af 93       	push	r26
    147e:	bf 93       	push	r27
    1480:	ef 93       	push	r30
    1482:	ff 93       	push	r31
	if (tc_tcf1_ovf_callback) {
    1484:	e0 91 8c 20 	lds	r30, 0x208C	; 0x80208c <tc_tcf1_ovf_callback>
    1488:	f0 91 8d 20 	lds	r31, 0x208D	; 0x80208d <tc_tcf1_ovf_callback+0x1>
    148c:	30 97       	sbiw	r30, 0x00	; 0
    148e:	09 f0       	breq	.+2      	; 0x1492 <__vector_114+0x42>
		tc_tcf1_ovf_callback();
    1490:	19 95       	eicall
	}
}
    1492:	ff 91       	pop	r31
    1494:	ef 91       	pop	r30
    1496:	bf 91       	pop	r27
    1498:	af 91       	pop	r26
    149a:	9f 91       	pop	r25
    149c:	8f 91       	pop	r24
    149e:	7f 91       	pop	r23
    14a0:	6f 91       	pop	r22
    14a2:	5f 91       	pop	r21
    14a4:	4f 91       	pop	r20
    14a6:	3f 91       	pop	r19
    14a8:	2f 91       	pop	r18
    14aa:	0f 90       	pop	r0
    14ac:	0b be       	out	0x3b, r0	; 59
    14ae:	0f 90       	pop	r0
    14b0:	09 be       	out	0x39, r0	; 57
    14b2:	0f 90       	pop	r0
    14b4:	08 be       	out	0x38, r0	; 56
    14b6:	0f 90       	pop	r0
    14b8:	0f be       	out	0x3f, r0	; 63
    14ba:	0f 90       	pop	r0
    14bc:	1f 90       	pop	r1
    14be:	18 95       	reti

000014c0 <__vector_115>:
 *
 * This function will handle interrupt on Timer Counter F1 error and
 * call the callback function.
 */
ISR(TCF1_ERR_vect)
{
    14c0:	1f 92       	push	r1
    14c2:	0f 92       	push	r0
    14c4:	0f b6       	in	r0, 0x3f	; 63
    14c6:	0f 92       	push	r0
    14c8:	11 24       	eor	r1, r1
    14ca:	08 b6       	in	r0, 0x38	; 56
    14cc:	0f 92       	push	r0
    14ce:	18 be       	out	0x38, r1	; 56
    14d0:	09 b6       	in	r0, 0x39	; 57
    14d2:	0f 92       	push	r0
    14d4:	19 be       	out	0x39, r1	; 57
    14d6:	0b b6       	in	r0, 0x3b	; 59
    14d8:	0f 92       	push	r0
    14da:	1b be       	out	0x3b, r1	; 59
    14dc:	2f 93       	push	r18
    14de:	3f 93       	push	r19
    14e0:	4f 93       	push	r20
    14e2:	5f 93       	push	r21
    14e4:	6f 93       	push	r22
    14e6:	7f 93       	push	r23
    14e8:	8f 93       	push	r24
    14ea:	9f 93       	push	r25
    14ec:	af 93       	push	r26
    14ee:	bf 93       	push	r27
    14f0:	ef 93       	push	r30
    14f2:	ff 93       	push	r31
	if (tc_tcf1_err_callback) {
    14f4:	e0 91 8a 20 	lds	r30, 0x208A	; 0x80208a <tc_tcf1_err_callback>
    14f8:	f0 91 8b 20 	lds	r31, 0x208B	; 0x80208b <tc_tcf1_err_callback+0x1>
    14fc:	30 97       	sbiw	r30, 0x00	; 0
    14fe:	09 f0       	breq	.+2      	; 0x1502 <__vector_115+0x42>
		tc_tcf1_err_callback();
    1500:	19 95       	eicall
	}
}
    1502:	ff 91       	pop	r31
    1504:	ef 91       	pop	r30
    1506:	bf 91       	pop	r27
    1508:	af 91       	pop	r26
    150a:	9f 91       	pop	r25
    150c:	8f 91       	pop	r24
    150e:	7f 91       	pop	r23
    1510:	6f 91       	pop	r22
    1512:	5f 91       	pop	r21
    1514:	4f 91       	pop	r20
    1516:	3f 91       	pop	r19
    1518:	2f 91       	pop	r18
    151a:	0f 90       	pop	r0
    151c:	0b be       	out	0x3b, r0	; 59
    151e:	0f 90       	pop	r0
    1520:	09 be       	out	0x39, r0	; 57
    1522:	0f 90       	pop	r0
    1524:	08 be       	out	0x38, r0	; 56
    1526:	0f 90       	pop	r0
    1528:	0f be       	out	0x3f, r0	; 63
    152a:	0f 90       	pop	r0
    152c:	1f 90       	pop	r1
    152e:	18 95       	reti

00001530 <__vector_116>:
 *
 * This function will handle interrupt on Timer Counter F1 Compare/CaptureA and
 * call the callback function.
 */
ISR(TCF1_CCA_vect)
{
    1530:	1f 92       	push	r1
    1532:	0f 92       	push	r0
    1534:	0f b6       	in	r0, 0x3f	; 63
    1536:	0f 92       	push	r0
    1538:	11 24       	eor	r1, r1
    153a:	08 b6       	in	r0, 0x38	; 56
    153c:	0f 92       	push	r0
    153e:	18 be       	out	0x38, r1	; 56
    1540:	09 b6       	in	r0, 0x39	; 57
    1542:	0f 92       	push	r0
    1544:	19 be       	out	0x39, r1	; 57
    1546:	0b b6       	in	r0, 0x3b	; 59
    1548:	0f 92       	push	r0
    154a:	1b be       	out	0x3b, r1	; 59
    154c:	2f 93       	push	r18
    154e:	3f 93       	push	r19
    1550:	4f 93       	push	r20
    1552:	5f 93       	push	r21
    1554:	6f 93       	push	r22
    1556:	7f 93       	push	r23
    1558:	8f 93       	push	r24
    155a:	9f 93       	push	r25
    155c:	af 93       	push	r26
    155e:	bf 93       	push	r27
    1560:	ef 93       	push	r30
    1562:	ff 93       	push	r31
	if (tc_tcf1_cca_callback) {
    1564:	e0 91 88 20 	lds	r30, 0x2088	; 0x802088 <tc_tcf1_cca_callback>
    1568:	f0 91 89 20 	lds	r31, 0x2089	; 0x802089 <tc_tcf1_cca_callback+0x1>
    156c:	30 97       	sbiw	r30, 0x00	; 0
    156e:	09 f0       	breq	.+2      	; 0x1572 <__vector_116+0x42>
		tc_tcf1_cca_callback();
    1570:	19 95       	eicall
	}
}
    1572:	ff 91       	pop	r31
    1574:	ef 91       	pop	r30
    1576:	bf 91       	pop	r27
    1578:	af 91       	pop	r26
    157a:	9f 91       	pop	r25
    157c:	8f 91       	pop	r24
    157e:	7f 91       	pop	r23
    1580:	6f 91       	pop	r22
    1582:	5f 91       	pop	r21
    1584:	4f 91       	pop	r20
    1586:	3f 91       	pop	r19
    1588:	2f 91       	pop	r18
    158a:	0f 90       	pop	r0
    158c:	0b be       	out	0x3b, r0	; 59
    158e:	0f 90       	pop	r0
    1590:	09 be       	out	0x39, r0	; 57
    1592:	0f 90       	pop	r0
    1594:	08 be       	out	0x38, r0	; 56
    1596:	0f 90       	pop	r0
    1598:	0f be       	out	0x3f, r0	; 63
    159a:	0f 90       	pop	r0
    159c:	1f 90       	pop	r1
    159e:	18 95       	reti

000015a0 <__vector_117>:
 *
 * This function will handle interrupt on Timer Counter F1 Compare/CaptureB and
 * call the callback function.
 */
ISR(TCF1_CCB_vect)
{
    15a0:	1f 92       	push	r1
    15a2:	0f 92       	push	r0
    15a4:	0f b6       	in	r0, 0x3f	; 63
    15a6:	0f 92       	push	r0
    15a8:	11 24       	eor	r1, r1
    15aa:	08 b6       	in	r0, 0x38	; 56
    15ac:	0f 92       	push	r0
    15ae:	18 be       	out	0x38, r1	; 56
    15b0:	09 b6       	in	r0, 0x39	; 57
    15b2:	0f 92       	push	r0
    15b4:	19 be       	out	0x39, r1	; 57
    15b6:	0b b6       	in	r0, 0x3b	; 59
    15b8:	0f 92       	push	r0
    15ba:	1b be       	out	0x3b, r1	; 59
    15bc:	2f 93       	push	r18
    15be:	3f 93       	push	r19
    15c0:	4f 93       	push	r20
    15c2:	5f 93       	push	r21
    15c4:	6f 93       	push	r22
    15c6:	7f 93       	push	r23
    15c8:	8f 93       	push	r24
    15ca:	9f 93       	push	r25
    15cc:	af 93       	push	r26
    15ce:	bf 93       	push	r27
    15d0:	ef 93       	push	r30
    15d2:	ff 93       	push	r31
	if (tc_tcf1_ccb_callback) {
    15d4:	e0 91 86 20 	lds	r30, 0x2086	; 0x802086 <__data_end>
    15d8:	f0 91 87 20 	lds	r31, 0x2087	; 0x802087 <__data_end+0x1>
    15dc:	30 97       	sbiw	r30, 0x00	; 0
    15de:	09 f0       	breq	.+2      	; 0x15e2 <__vector_117+0x42>
		tc_tcf1_ccb_callback();
    15e0:	19 95       	eicall
	}
}
    15e2:	ff 91       	pop	r31
    15e4:	ef 91       	pop	r30
    15e6:	bf 91       	pop	r27
    15e8:	af 91       	pop	r26
    15ea:	9f 91       	pop	r25
    15ec:	8f 91       	pop	r24
    15ee:	7f 91       	pop	r23
    15f0:	6f 91       	pop	r22
    15f2:	5f 91       	pop	r21
    15f4:	4f 91       	pop	r20
    15f6:	3f 91       	pop	r19
    15f8:	2f 91       	pop	r18
    15fa:	0f 90       	pop	r0
    15fc:	0b be       	out	0x3b, r0	; 59
    15fe:	0f 90       	pop	r0
    1600:	09 be       	out	0x39, r0	; 57
    1602:	0f 90       	pop	r0
    1604:	08 be       	out	0x38, r0	; 56
    1606:	0f 90       	pop	r0
    1608:	0f be       	out	0x3f, r0	; 63
    160a:	0f 90       	pop	r0
    160c:	1f 90       	pop	r1
    160e:	18 95       	reti

00001610 <twim_interrupt_handler>:
 * \brief Common TWI master interrupt service routine.
 *
 *  Check current status and calls the appropriate handler.
 */
static void twim_interrupt_handler(void)
{
    1610:	cf 93       	push	r28
    1612:	df 93       	push	r29
	uint8_t const master_status = transfer.bus->MASTER.STATUS;
    1614:	e0 91 d6 20 	lds	r30, 0x20D6	; 0x8020d6 <transfer>
    1618:	f0 91 d7 20 	lds	r31, 0x20D7	; 0x8020d7 <transfer+0x1>
    161c:	84 81       	ldd	r24, Z+4	; 0x04

	if (master_status & TWI_MASTER_ARBLOST_bm) {
    161e:	83 ff       	sbrs	r24, 3
    1620:	08 c0       	rjmp	.+16     	; 0x1632 <twim_interrupt_handler+0x22>

		transfer.bus->MASTER.STATUS = master_status | TWI_MASTER_ARBLOST_bm;
    1622:	88 60       	ori	r24, 0x08	; 8
    1624:	84 83       	std	Z+4, r24	; 0x04
		transfer.bus->MASTER.CTRLC  = TWI_MASTER_CMD_STOP_gc;
    1626:	83 e0       	ldi	r24, 0x03	; 3
    1628:	83 83       	std	Z+3, r24	; 0x03
		transfer.status = ERR_BUSY;
    162a:	86 ef       	ldi	r24, 0xF6	; 246
    162c:	80 93 e0 20 	sts	0x20E0, r24	; 0x8020e0 <transfer+0xa>
    1630:	83 c0       	rjmp	.+262    	; 0x1738 <twim_interrupt_handler+0x128>

	} else if ((master_status & TWI_MASTER_BUSERR_bm) ||
    1632:	98 2f       	mov	r25, r24
    1634:	94 71       	andi	r25, 0x14	; 20
    1636:	31 f0       	breq	.+12     	; 0x1644 <twim_interrupt_handler+0x34>
		(master_status & TWI_MASTER_RXACK_bm)) {

		transfer.bus->MASTER.CTRLC = TWI_MASTER_CMD_STOP_gc;
    1638:	83 e0       	ldi	r24, 0x03	; 3
    163a:	83 83       	std	Z+3, r24	; 0x03
		transfer.status = ERR_IO_ERROR;
    163c:	8f ef       	ldi	r24, 0xFF	; 255
    163e:	80 93 e0 20 	sts	0x20E0, r24	; 0x8020e0 <transfer+0xa>
    1642:	7a c0       	rjmp	.+244    	; 0x1738 <twim_interrupt_handler+0x128>

	} else if (master_status & TWI_MASTER_WIF_bm) {
    1644:	86 ff       	sbrs	r24, 6
    1646:	43 c0       	rjmp	.+134    	; 0x16ce <twim_interrupt_handler+0xbe>
 *  Handles TWI transactions (master write) and responses to (N)ACK.
 */
static inline void twim_write_handler(void)
{
	TWI_t * const         bus = transfer.bus;
	twi_package_t * const pkg = transfer.pkg;
    1648:	c6 ed       	ldi	r28, 0xD6	; 214
    164a:	d0 e2       	ldi	r29, 0x20	; 32
    164c:	aa 81       	ldd	r26, Y+2	; 0x02
    164e:	bb 81       	ldd	r27, Y+3	; 0x03

	if (transfer.addr_count < pkg->addr_length) {
    1650:	8c 81       	ldd	r24, Y+4	; 0x04
    1652:	9d 81       	ldd	r25, Y+5	; 0x05
    1654:	14 96       	adiw	r26, 0x04	; 4
    1656:	2d 91       	ld	r18, X+
    1658:	3c 91       	ld	r19, X
    165a:	15 97       	sbiw	r26, 0x05	; 5
    165c:	82 17       	cp	r24, r18
    165e:	93 07       	cpc	r25, r19
    1660:	6c f4       	brge	.+26     	; 0x167c <twim_interrupt_handler+0x6c>

		const uint8_t * const data = pkg->addr;
		bus->MASTER.DATA = data[transfer.addr_count++];
    1662:	9c 01       	movw	r18, r24
    1664:	2f 5f       	subi	r18, 0xFF	; 255
    1666:	3f 4f       	sbci	r19, 0xFF	; 255
    1668:	20 93 da 20 	sts	0x20DA, r18	; 0x8020da <transfer+0x4>
    166c:	30 93 db 20 	sts	0x20DB, r19	; 0x8020db <transfer+0x5>
    1670:	a8 0f       	add	r26, r24
    1672:	b9 1f       	adc	r27, r25
    1674:	11 96       	adiw	r26, 0x01	; 1
    1676:	8c 91       	ld	r24, X
    1678:	87 83       	std	Z+7, r24	; 0x07
    167a:	5e c0       	rjmp	.+188    	; 0x1738 <twim_interrupt_handler+0x128>

	} else if (transfer.data_count < pkg->length) {
    167c:	80 91 dc 20 	lds	r24, 0x20DC	; 0x8020dc <transfer+0x6>
    1680:	90 91 dd 20 	lds	r25, 0x20DD	; 0x8020dd <transfer+0x7>
    1684:	18 96       	adiw	r26, 0x08	; 8
    1686:	2d 91       	ld	r18, X+
    1688:	3c 91       	ld	r19, X
    168a:	19 97       	sbiw	r26, 0x09	; 9
    168c:	82 17       	cp	r24, r18
    168e:	93 07       	cpc	r25, r19
    1690:	c8 f4       	brcc	.+50     	; 0x16c4 <twim_interrupt_handler+0xb4>

		if (transfer.read) {
    1692:	20 91 de 20 	lds	r18, 0x20DE	; 0x8020de <transfer+0x8>
    1696:	22 23       	and	r18, r18
    1698:	21 f0       	breq	.+8      	; 0x16a2 <twim_interrupt_handler+0x92>

			/* Send repeated START condition (Address|R/W=1). */

			bus->MASTER.ADDR |= 0x01;
    169a:	86 81       	ldd	r24, Z+6	; 0x06
    169c:	81 60       	ori	r24, 0x01	; 1
    169e:	86 83       	std	Z+6, r24	; 0x06
    16a0:	4b c0       	rjmp	.+150    	; 0x1738 <twim_interrupt_handler+0x128>

		} else {
			const uint8_t * const data = pkg->buffer;
    16a2:	16 96       	adiw	r26, 0x06	; 6
    16a4:	2d 91       	ld	r18, X+
    16a6:	3c 91       	ld	r19, X
    16a8:	17 97       	sbiw	r26, 0x07	; 7
			bus->MASTER.DATA = data[transfer.data_count++];
    16aa:	ac 01       	movw	r20, r24
    16ac:	4f 5f       	subi	r20, 0xFF	; 255
    16ae:	5f 4f       	sbci	r21, 0xFF	; 255
    16b0:	40 93 dc 20 	sts	0x20DC, r20	; 0x8020dc <transfer+0x6>
    16b4:	50 93 dd 20 	sts	0x20DD, r21	; 0x8020dd <transfer+0x7>
    16b8:	d9 01       	movw	r26, r18
    16ba:	a8 0f       	add	r26, r24
    16bc:	b9 1f       	adc	r27, r25
    16be:	8c 91       	ld	r24, X
    16c0:	87 83       	std	Z+7, r24	; 0x07
    16c2:	3a c0       	rjmp	.+116    	; 0x1738 <twim_interrupt_handler+0x128>

	} else {

		/* Send STOP condition to complete the transaction. */

		bus->MASTER.CTRLC = TWI_MASTER_CMD_STOP_gc;
    16c4:	83 e0       	ldi	r24, 0x03	; 3
    16c6:	83 83       	std	Z+3, r24	; 0x03
		transfer.status = STATUS_OK;
    16c8:	10 92 e0 20 	sts	0x20E0, r1	; 0x8020e0 <transfer+0xa>
    16cc:	35 c0       	rjmp	.+106    	; 0x1738 <twim_interrupt_handler+0x128>

	} else if (master_status & TWI_MASTER_WIF_bm) {

		twim_write_handler();

	} else if (master_status & TWI_MASTER_RIF_bm) {
    16ce:	88 23       	and	r24, r24
    16d0:	84 f5       	brge	.+96     	; 0x1732 <twim_interrupt_handler+0x122>
 *  reading bytes from the TWI slave.
 */
static inline void twim_read_handler(void)
{
	TWI_t * const         bus = transfer.bus;
	twi_package_t * const pkg = transfer.pkg;
    16d2:	a6 ed       	ldi	r26, 0xD6	; 214
    16d4:	b0 e2       	ldi	r27, 0x20	; 32
    16d6:	12 96       	adiw	r26, 0x02	; 2
    16d8:	cd 91       	ld	r28, X+
    16da:	dc 91       	ld	r29, X
    16dc:	13 97       	sbiw	r26, 0x03	; 3

	if (transfer.data_count < pkg->length) {
    16de:	16 96       	adiw	r26, 0x06	; 6
    16e0:	8d 91       	ld	r24, X+
    16e2:	9c 91       	ld	r25, X
    16e4:	17 97       	sbiw	r26, 0x07	; 7
    16e6:	28 85       	ldd	r18, Y+8	; 0x08
    16e8:	39 85       	ldd	r19, Y+9	; 0x09
    16ea:	82 17       	cp	r24, r18
    16ec:	93 07       	cpc	r25, r19
    16ee:	d8 f4       	brcc	.+54     	; 0x1726 <twim_interrupt_handler+0x116>

		uint8_t * const data = pkg->buffer;
    16f0:	6e 81       	ldd	r22, Y+6	; 0x06
    16f2:	7f 81       	ldd	r23, Y+7	; 0x07
		data[transfer.data_count++] = bus->MASTER.DATA;
    16f4:	9c 01       	movw	r18, r24
    16f6:	2f 5f       	subi	r18, 0xFF	; 255
    16f8:	3f 4f       	sbci	r19, 0xFF	; 255
    16fa:	20 93 dc 20 	sts	0x20DC, r18	; 0x8020dc <transfer+0x6>
    16fe:	30 93 dd 20 	sts	0x20DD, r19	; 0x8020dd <transfer+0x7>
    1702:	47 81       	ldd	r20, Z+7	; 0x07
    1704:	db 01       	movw	r26, r22
    1706:	a8 0f       	add	r26, r24
    1708:	b9 1f       	adc	r27, r25
    170a:	4c 93       	st	X, r20

		/* If there is more to read, issue ACK and start a byte read.
		 * Otherwise, issue NACK and STOP to complete the transaction.
		 */
		if (transfer.data_count < pkg->length) {
    170c:	88 85       	ldd	r24, Y+8	; 0x08
    170e:	99 85       	ldd	r25, Y+9	; 0x09
    1710:	28 17       	cp	r18, r24
    1712:	39 07       	cpc	r19, r25
    1714:	18 f4       	brcc	.+6      	; 0x171c <twim_interrupt_handler+0x10c>

			bus->MASTER.CTRLC = TWI_MASTER_CMD_RECVTRANS_gc;
    1716:	82 e0       	ldi	r24, 0x02	; 2
    1718:	83 83       	std	Z+3, r24	; 0x03
    171a:	0e c0       	rjmp	.+28     	; 0x1738 <twim_interrupt_handler+0x128>

		} else {

			bus->MASTER.CTRLC = TWI_MASTER_ACKACT_bm | TWI_MASTER_CMD_STOP_gc;
    171c:	87 e0       	ldi	r24, 0x07	; 7
    171e:	83 83       	std	Z+3, r24	; 0x03
			transfer.status = STATUS_OK;
    1720:	10 92 e0 20 	sts	0x20E0, r1	; 0x8020e0 <transfer+0xa>
    1724:	09 c0       	rjmp	.+18     	; 0x1738 <twim_interrupt_handler+0x128>

	} else {

		/* Issue STOP and buffer overflow condition. */

		bus->MASTER.CTRLC = TWI_MASTER_CMD_STOP_gc;
    1726:	83 e0       	ldi	r24, 0x03	; 3
    1728:	83 83       	std	Z+3, r24	; 0x03
		transfer.status = ERR_NO_MEMORY;
    172a:	89 ef       	ldi	r24, 0xF9	; 249
    172c:	80 93 e0 20 	sts	0x20E0, r24	; 0x8020e0 <transfer+0xa>
    1730:	03 c0       	rjmp	.+6      	; 0x1738 <twim_interrupt_handler+0x128>

		twim_read_handler();

	} else {

		transfer.status = ERR_PROTOCOL;
    1732:	8b ef       	ldi	r24, 0xFB	; 251
    1734:	80 93 e0 20 	sts	0x20E0, r24	; 0x8020e0 <transfer+0xa>
	}
}
    1738:	df 91       	pop	r29
    173a:	cf 91       	pop	r28
    173c:	08 95       	ret

0000173e <__vector_13>:
 * parameters specified in the global \c transfer structure.
 */
static void twim_interrupt_handler(void);

#ifdef TWIC
ISR(TWIC_TWIM_vect) { twim_interrupt_handler(); }
    173e:	1f 92       	push	r1
    1740:	0f 92       	push	r0
    1742:	0f b6       	in	r0, 0x3f	; 63
    1744:	0f 92       	push	r0
    1746:	11 24       	eor	r1, r1
    1748:	08 b6       	in	r0, 0x38	; 56
    174a:	0f 92       	push	r0
    174c:	18 be       	out	0x38, r1	; 56
    174e:	09 b6       	in	r0, 0x39	; 57
    1750:	0f 92       	push	r0
    1752:	19 be       	out	0x39, r1	; 57
    1754:	0b b6       	in	r0, 0x3b	; 59
    1756:	0f 92       	push	r0
    1758:	1b be       	out	0x3b, r1	; 59
    175a:	2f 93       	push	r18
    175c:	3f 93       	push	r19
    175e:	4f 93       	push	r20
    1760:	5f 93       	push	r21
    1762:	6f 93       	push	r22
    1764:	7f 93       	push	r23
    1766:	8f 93       	push	r24
    1768:	9f 93       	push	r25
    176a:	af 93       	push	r26
    176c:	bf 93       	push	r27
    176e:	ef 93       	push	r30
    1770:	ff 93       	push	r31
    1772:	4e df       	rcall	.-356    	; 0x1610 <twim_interrupt_handler>
    1774:	ff 91       	pop	r31
    1776:	ef 91       	pop	r30
    1778:	bf 91       	pop	r27
    177a:	af 91       	pop	r26
    177c:	9f 91       	pop	r25
    177e:	8f 91       	pop	r24
    1780:	7f 91       	pop	r23
    1782:	6f 91       	pop	r22
    1784:	5f 91       	pop	r21
    1786:	4f 91       	pop	r20
    1788:	3f 91       	pop	r19
    178a:	2f 91       	pop	r18
    178c:	0f 90       	pop	r0
    178e:	0b be       	out	0x3b, r0	; 59
    1790:	0f 90       	pop	r0
    1792:	09 be       	out	0x39, r0	; 57
    1794:	0f 90       	pop	r0
    1796:	08 be       	out	0x38, r0	; 56
    1798:	0f 90       	pop	r0
    179a:	0f be       	out	0x3f, r0	; 63
    179c:	0f 90       	pop	r0
    179e:	1f 90       	pop	r1
    17a0:	18 95       	reti

000017a2 <__vector_76>:
#endif
#ifdef TWID
ISR(TWID_TWIM_vect) { twim_interrupt_handler(); }
    17a2:	1f 92       	push	r1
    17a4:	0f 92       	push	r0
    17a6:	0f b6       	in	r0, 0x3f	; 63
    17a8:	0f 92       	push	r0
    17aa:	11 24       	eor	r1, r1
    17ac:	08 b6       	in	r0, 0x38	; 56
    17ae:	0f 92       	push	r0
    17b0:	18 be       	out	0x38, r1	; 56
    17b2:	09 b6       	in	r0, 0x39	; 57
    17b4:	0f 92       	push	r0
    17b6:	19 be       	out	0x39, r1	; 57
    17b8:	0b b6       	in	r0, 0x3b	; 59
    17ba:	0f 92       	push	r0
    17bc:	1b be       	out	0x3b, r1	; 59
    17be:	2f 93       	push	r18
    17c0:	3f 93       	push	r19
    17c2:	4f 93       	push	r20
    17c4:	5f 93       	push	r21
    17c6:	6f 93       	push	r22
    17c8:	7f 93       	push	r23
    17ca:	8f 93       	push	r24
    17cc:	9f 93       	push	r25
    17ce:	af 93       	push	r26
    17d0:	bf 93       	push	r27
    17d2:	ef 93       	push	r30
    17d4:	ff 93       	push	r31
    17d6:	1c df       	rcall	.-456    	; 0x1610 <twim_interrupt_handler>
    17d8:	ff 91       	pop	r31
    17da:	ef 91       	pop	r30
    17dc:	bf 91       	pop	r27
    17de:	af 91       	pop	r26
    17e0:	9f 91       	pop	r25
    17e2:	8f 91       	pop	r24
    17e4:	7f 91       	pop	r23
    17e6:	6f 91       	pop	r22
    17e8:	5f 91       	pop	r21
    17ea:	4f 91       	pop	r20
    17ec:	3f 91       	pop	r19
    17ee:	2f 91       	pop	r18
    17f0:	0f 90       	pop	r0
    17f2:	0b be       	out	0x3b, r0	; 59
    17f4:	0f 90       	pop	r0
    17f6:	09 be       	out	0x39, r0	; 57
    17f8:	0f 90       	pop	r0
    17fa:	08 be       	out	0x38, r0	; 56
    17fc:	0f 90       	pop	r0
    17fe:	0f be       	out	0x3f, r0	; 63
    1800:	0f 90       	pop	r0
    1802:	1f 90       	pop	r1
    1804:	18 95       	reti

00001806 <__vector_46>:
#endif
#ifdef TWIE
ISR(TWIE_TWIM_vect) { twim_interrupt_handler(); }
    1806:	1f 92       	push	r1
    1808:	0f 92       	push	r0
    180a:	0f b6       	in	r0, 0x3f	; 63
    180c:	0f 92       	push	r0
    180e:	11 24       	eor	r1, r1
    1810:	08 b6       	in	r0, 0x38	; 56
    1812:	0f 92       	push	r0
    1814:	18 be       	out	0x38, r1	; 56
    1816:	09 b6       	in	r0, 0x39	; 57
    1818:	0f 92       	push	r0
    181a:	19 be       	out	0x39, r1	; 57
    181c:	0b b6       	in	r0, 0x3b	; 59
    181e:	0f 92       	push	r0
    1820:	1b be       	out	0x3b, r1	; 59
    1822:	2f 93       	push	r18
    1824:	3f 93       	push	r19
    1826:	4f 93       	push	r20
    1828:	5f 93       	push	r21
    182a:	6f 93       	push	r22
    182c:	7f 93       	push	r23
    182e:	8f 93       	push	r24
    1830:	9f 93       	push	r25
    1832:	af 93       	push	r26
    1834:	bf 93       	push	r27
    1836:	ef 93       	push	r30
    1838:	ff 93       	push	r31
    183a:	ea de       	rcall	.-556    	; 0x1610 <twim_interrupt_handler>
    183c:	ff 91       	pop	r31
    183e:	ef 91       	pop	r30
    1840:	bf 91       	pop	r27
    1842:	af 91       	pop	r26
    1844:	9f 91       	pop	r25
    1846:	8f 91       	pop	r24
    1848:	7f 91       	pop	r23
    184a:	6f 91       	pop	r22
    184c:	5f 91       	pop	r21
    184e:	4f 91       	pop	r20
    1850:	3f 91       	pop	r19
    1852:	2f 91       	pop	r18
    1854:	0f 90       	pop	r0
    1856:	0b be       	out	0x3b, r0	; 59
    1858:	0f 90       	pop	r0
    185a:	09 be       	out	0x39, r0	; 57
    185c:	0f 90       	pop	r0
    185e:	08 be       	out	0x38, r0	; 56
    1860:	0f 90       	pop	r0
    1862:	0f be       	out	0x3f, r0	; 63
    1864:	0f 90       	pop	r0
    1866:	1f 90       	pop	r1
    1868:	18 95       	reti

0000186a <__vector_107>:
#endif
#ifdef TWIF
ISR(TWIF_TWIM_vect) { twim_interrupt_handler(); }
    186a:	1f 92       	push	r1
    186c:	0f 92       	push	r0
    186e:	0f b6       	in	r0, 0x3f	; 63
    1870:	0f 92       	push	r0
    1872:	11 24       	eor	r1, r1
    1874:	08 b6       	in	r0, 0x38	; 56
    1876:	0f 92       	push	r0
    1878:	18 be       	out	0x38, r1	; 56
    187a:	09 b6       	in	r0, 0x39	; 57
    187c:	0f 92       	push	r0
    187e:	19 be       	out	0x39, r1	; 57
    1880:	0b b6       	in	r0, 0x3b	; 59
    1882:	0f 92       	push	r0
    1884:	1b be       	out	0x3b, r1	; 59
    1886:	2f 93       	push	r18
    1888:	3f 93       	push	r19
    188a:	4f 93       	push	r20
    188c:	5f 93       	push	r21
    188e:	6f 93       	push	r22
    1890:	7f 93       	push	r23
    1892:	8f 93       	push	r24
    1894:	9f 93       	push	r25
    1896:	af 93       	push	r26
    1898:	bf 93       	push	r27
    189a:	ef 93       	push	r30
    189c:	ff 93       	push	r31
    189e:	b8 de       	rcall	.-656    	; 0x1610 <twim_interrupt_handler>
    18a0:	ff 91       	pop	r31
    18a2:	ef 91       	pop	r30
    18a4:	bf 91       	pop	r27
    18a6:	af 91       	pop	r26
    18a8:	9f 91       	pop	r25
    18aa:	8f 91       	pop	r24
    18ac:	7f 91       	pop	r23
    18ae:	6f 91       	pop	r22
    18b0:	5f 91       	pop	r21
    18b2:	4f 91       	pop	r20
    18b4:	3f 91       	pop	r19
    18b6:	2f 91       	pop	r18
    18b8:	0f 90       	pop	r0
    18ba:	0b be       	out	0x3b, r0	; 59
    18bc:	0f 90       	pop	r0
    18be:	09 be       	out	0x39, r0	; 57
    18c0:	0f 90       	pop	r0
    18c2:	08 be       	out	0x38, r0	; 56
    18c4:	0f 90       	pop	r0
    18c6:	0f be       	out	0x3f, r0	; 63
    18c8:	0f 90       	pop	r0
    18ca:	1f 90       	pop	r1
    18cc:	18 95       	reti

000018ce <usart_putchar>:

	if (baud_offset != USART_BAUD_UNDEFINED) {
		(usart)->BAUDCTRLB = (uint8_t)((uint16_t)baudctrl);
		(usart)->BAUDCTRLA = (uint8_t)((uint16_t)baudctrl >> 8);
	}
}
    18ce:	fc 01       	movw	r30, r24
    18d0:	91 81       	ldd	r25, Z+1	; 0x01
    18d2:	95 ff       	sbrs	r25, 5
    18d4:	fd cf       	rjmp	.-6      	; 0x18d0 <usart_putchar+0x2>
    18d6:	60 83       	st	Z, r22
    18d8:	80 e0       	ldi	r24, 0x00	; 0
    18da:	90 e0       	ldi	r25, 0x00	; 0
    18dc:	08 95       	ret

000018de <usart_getchar>:
    18de:	fc 01       	movw	r30, r24
    18e0:	91 81       	ldd	r25, Z+1	; 0x01
    18e2:	99 23       	and	r25, r25
    18e4:	ec f7       	brge	.-6      	; 0x18e0 <usart_getchar+0x2>
    18e6:	80 81       	ld	r24, Z
    18e8:	08 95       	ret

000018ea <usart_set_baudrate>:
 * \retval true if the hardware supports the baud rate
 * \retval false if the hardware does not support the baud rate (i.e. it's
 *               either too high or too low.)
 */
bool usart_set_baudrate(USART_t *usart, uint32_t baud, uint32_t cpu_hz)
{
    18ea:	4f 92       	push	r4
    18ec:	5f 92       	push	r5
    18ee:	6f 92       	push	r6
    18f0:	7f 92       	push	r7
    18f2:	8f 92       	push	r8
    18f4:	9f 92       	push	r9
    18f6:	af 92       	push	r10
    18f8:	bf 92       	push	r11
    18fa:	ef 92       	push	r14
    18fc:	ff 92       	push	r15
    18fe:	0f 93       	push	r16
    1900:	1f 93       	push	r17
    1902:	cf 93       	push	r28
    1904:	7c 01       	movw	r14, r24
    1906:	4a 01       	movw	r8, r20
    1908:	5b 01       	movw	r10, r22
    190a:	28 01       	movw	r4, r16
    190c:	39 01       	movw	r6, r18
	/* 8 = (2^0) * 8 * (2^0) = (2^BSCALE_MIN) * 8 * (BSEL_MIN) */
	max_rate = cpu_hz / 8;
	/* 4194304 = (2^7) * 8 * (2^12) = (2^BSCALE_MAX) * 8 * (BSEL_MAX+1) */
	min_rate = cpu_hz / 4194304;

	if (!((usart)->CTRLB & USART_CLK2X_bm)) {
    190e:	fc 01       	movw	r30, r24
    1910:	84 81       	ldd	r24, Z+4	; 0x04
    1912:	82 ff       	sbrs	r24, 2
    1914:	16 c0       	rjmp	.+44     	; 0x1942 <usart_set_baudrate+0x58>

	/*
	 * Check if the hardware supports the given baud rate
	 */
	/* 8 = (2^0) * 8 * (2^0) = (2^BSCALE_MIN) * 8 * (BSEL_MIN) */
	max_rate = cpu_hz / 8;
    1916:	d9 01       	movw	r26, r18
    1918:	c8 01       	movw	r24, r16
    191a:	68 94       	set
    191c:	12 f8       	bld	r1, 2
    191e:	b6 95       	lsr	r27
    1920:	a7 95       	ror	r26
    1922:	97 95       	ror	r25
    1924:	87 95       	ror	r24
    1926:	16 94       	lsr	r1
    1928:	d1 f7       	brne	.-12     	; 0x191e <usart_set_baudrate+0x34>
	/* 4194304 = (2^7) * 8 * (2^12) = (2^BSCALE_MAX) * 8 * (BSEL_MAX+1) */
	min_rate = cpu_hz / 4194304;
    192a:	b9 01       	movw	r22, r18
    192c:	a8 01       	movw	r20, r16
    192e:	03 2e       	mov	r0, r19
    1930:	36 e1       	ldi	r19, 0x16	; 22
    1932:	76 95       	lsr	r23
    1934:	67 95       	ror	r22
    1936:	57 95       	ror	r21
    1938:	47 95       	ror	r20
    193a:	3a 95       	dec	r19
    193c:	d1 f7       	brne	.-12     	; 0x1932 <usart_set_baudrate+0x48>
    193e:	30 2d       	mov	r19, r0
    1940:	15 c0       	rjmp	.+42     	; 0x196c <usart_set_baudrate+0x82>

	if (!((usart)->CTRLB & USART_CLK2X_bm)) {
		max_rate /= 2;
    1942:	d9 01       	movw	r26, r18
    1944:	c8 01       	movw	r24, r16
    1946:	68 94       	set
    1948:	13 f8       	bld	r1, 3
    194a:	b6 95       	lsr	r27
    194c:	a7 95       	ror	r26
    194e:	97 95       	ror	r25
    1950:	87 95       	ror	r24
    1952:	16 94       	lsr	r1
    1954:	d1 f7       	brne	.-12     	; 0x194a <usart_set_baudrate+0x60>
		min_rate /= 2;
    1956:	b9 01       	movw	r22, r18
    1958:	a8 01       	movw	r20, r16
    195a:	03 2e       	mov	r0, r19
    195c:	37 e1       	ldi	r19, 0x17	; 23
    195e:	76 95       	lsr	r23
    1960:	67 95       	ror	r22
    1962:	57 95       	ror	r21
    1964:	47 95       	ror	r20
    1966:	3a 95       	dec	r19
    1968:	d1 f7       	brne	.-12     	; 0x195e <usart_set_baudrate+0x74>
    196a:	30 2d       	mov	r19, r0
	}

	if ((baud > max_rate) || (baud < min_rate)) {
    196c:	88 15       	cp	r24, r8
    196e:	99 05       	cpc	r25, r9
    1970:	aa 05       	cpc	r26, r10
    1972:	bb 05       	cpc	r27, r11
    1974:	08 f4       	brcc	.+2      	; 0x1978 <usart_set_baudrate+0x8e>
    1976:	a2 c0       	rjmp	.+324    	; 0x1abc <usart_set_baudrate+0x1d2>
    1978:	84 16       	cp	r8, r20
    197a:	95 06       	cpc	r9, r21
    197c:	a6 06       	cpc	r10, r22
    197e:	b7 06       	cpc	r11, r23
    1980:	08 f4       	brcc	.+2      	; 0x1984 <usart_set_baudrate+0x9a>
    1982:	9e c0       	rjmp	.+316    	; 0x1ac0 <usart_set_baudrate+0x1d6>
		return false;
	}

	/* Check if double speed is enabled. */
	if (!((usart)->CTRLB & USART_CLK2X_bm)) {
    1984:	f7 01       	movw	r30, r14
    1986:	84 81       	ldd	r24, Z+4	; 0x04
    1988:	82 fd       	sbrc	r24, 2
    198a:	04 c0       	rjmp	.+8      	; 0x1994 <usart_set_baudrate+0xaa>
		baud *= 2;
    198c:	88 0c       	add	r8, r8
    198e:	99 1c       	adc	r9, r9
    1990:	aa 1c       	adc	r10, r10
    1992:	bb 1c       	adc	r11, r11
	}

	/* Find the lowest possible exponent. */
	limit = 0xfffU >> 4;
	ratio = cpu_hz / baud;
    1994:	c3 01       	movw	r24, r6
    1996:	b2 01       	movw	r22, r4
    1998:	a5 01       	movw	r20, r10
    199a:	94 01       	movw	r18, r8
    199c:	e8 d5       	rcall	.+3024   	; 0x256e <__udivmodsi4>

	for (exp = -7; exp < 7; exp++) {
		if (ratio < limit) {
    199e:	2f 3f       	cpi	r18, 0xFF	; 255
    19a0:	31 05       	cpc	r19, r1
    19a2:	41 05       	cpc	r20, r1
    19a4:	51 05       	cpc	r21, r1
    19a6:	08 f4       	brcc	.+2      	; 0x19aa <usart_set_baudrate+0xc0>
    19a8:	8d c0       	rjmp	.+282    	; 0x1ac4 <usart_set_baudrate+0x1da>
    19aa:	8f ef       	ldi	r24, 0xFF	; 255
    19ac:	90 e0       	ldi	r25, 0x00	; 0
    19ae:	a0 e0       	ldi	r26, 0x00	; 0
    19b0:	b0 e0       	ldi	r27, 0x00	; 0
    19b2:	c9 ef       	ldi	r28, 0xF9	; 249
    19b4:	05 c0       	rjmp	.+10     	; 0x19c0 <usart_set_baudrate+0xd6>
    19b6:	28 17       	cp	r18, r24
    19b8:	39 07       	cpc	r19, r25
    19ba:	4a 07       	cpc	r20, r26
    19bc:	5b 07       	cpc	r21, r27
    19be:	58 f0       	brcs	.+22     	; 0x19d6 <usart_set_baudrate+0xec>
			break;
		}

		limit <<= 1;
    19c0:	88 0f       	add	r24, r24
    19c2:	99 1f       	adc	r25, r25
    19c4:	aa 1f       	adc	r26, r26
    19c6:	bb 1f       	adc	r27, r27

		if (exp < -3) {
    19c8:	cd 3f       	cpi	r28, 0xFD	; 253
    19ca:	0c f4       	brge	.+2      	; 0x19ce <usart_set_baudrate+0xe4>
			limit |= 1;
    19cc:	81 60       	ori	r24, 0x01	; 1
    19ce:	cf 5f       	subi	r28, 0xFF	; 255

	/* Find the lowest possible exponent. */
	limit = 0xfffU >> 4;
	ratio = cpu_hz / baud;

	for (exp = -7; exp < 7; exp++) {
    19d0:	c7 30       	cpi	r28, 0x07	; 7
    19d2:	89 f7       	brne	.-30     	; 0x19b6 <usart_set_baudrate+0xcc>
    19d4:	4d c0       	rjmp	.+154    	; 0x1a70 <usart_set_baudrate+0x186>
	 * point.
	 *
	 * The formula for calculating BSEL is slightly different when exp is
	 * negative than it is when exp is positive.
	 */
	if (exp < 0) {
    19d6:	cc 23       	and	r28, r28
    19d8:	0c f0       	brlt	.+2      	; 0x19dc <usart_set_baudrate+0xf2>
    19da:	4a c0       	rjmp	.+148    	; 0x1a70 <usart_set_baudrate+0x186>
		/* We are supposed to subtract 1, then apply BSCALE. We want to
		 * apply BSCALE first, so we need to turn everything inside the
		 * parenthesis into a single fractional expression.
		 */
		cpu_hz -= 8 * baud;
    19dc:	d5 01       	movw	r26, r10
    19de:	c4 01       	movw	r24, r8
    19e0:	88 0f       	add	r24, r24
    19e2:	99 1f       	adc	r25, r25
    19e4:	aa 1f       	adc	r26, r26
    19e6:	bb 1f       	adc	r27, r27
    19e8:	88 0f       	add	r24, r24
    19ea:	99 1f       	adc	r25, r25
    19ec:	aa 1f       	adc	r26, r26
    19ee:	bb 1f       	adc	r27, r27
    19f0:	88 0f       	add	r24, r24
    19f2:	99 1f       	adc	r25, r25
    19f4:	aa 1f       	adc	r26, r26
    19f6:	bb 1f       	adc	r27, r27
    19f8:	48 1a       	sub	r4, r24
    19fa:	59 0a       	sbc	r5, r25
    19fc:	6a 0a       	sbc	r6, r26
    19fe:	7b 0a       	sbc	r7, r27
		/* If we end up with a left-shift after taking the final
		 * divide-by-8 into account, do the shift before the divide.
		 * Otherwise, left-shift the denominator instead (effectively
		 * resulting in an overall right shift.)
		 */
		if (exp <= -3) {
    1a00:	ce 3f       	cpi	r28, 0xFE	; 254
    1a02:	ec f4       	brge	.+58     	; 0x1a3e <usart_set_baudrate+0x154>
			div = ((cpu_hz << (-exp - 3)) + baud / 2) / baud;
    1a04:	8d ef       	ldi	r24, 0xFD	; 253
    1a06:	9f ef       	ldi	r25, 0xFF	; 255
    1a08:	8c 1b       	sub	r24, r28
    1a0a:	91 09       	sbc	r25, r1
    1a0c:	c7 fd       	sbrc	r28, 7
    1a0e:	93 95       	inc	r25
    1a10:	04 c0       	rjmp	.+8      	; 0x1a1a <usart_set_baudrate+0x130>
    1a12:	44 0c       	add	r4, r4
    1a14:	55 1c       	adc	r5, r5
    1a16:	66 1c       	adc	r6, r6
    1a18:	77 1c       	adc	r7, r7
    1a1a:	8a 95       	dec	r24
    1a1c:	d2 f7       	brpl	.-12     	; 0x1a12 <usart_set_baudrate+0x128>
    1a1e:	d5 01       	movw	r26, r10
    1a20:	c4 01       	movw	r24, r8
    1a22:	b6 95       	lsr	r27
    1a24:	a7 95       	ror	r26
    1a26:	97 95       	ror	r25
    1a28:	87 95       	ror	r24
    1a2a:	bc 01       	movw	r22, r24
    1a2c:	cd 01       	movw	r24, r26
    1a2e:	64 0d       	add	r22, r4
    1a30:	75 1d       	adc	r23, r5
    1a32:	86 1d       	adc	r24, r6
    1a34:	97 1d       	adc	r25, r7
    1a36:	a5 01       	movw	r20, r10
    1a38:	94 01       	movw	r18, r8
    1a3a:	99 d5       	rcall	.+2866   	; 0x256e <__udivmodsi4>
    1a3c:	35 c0       	rjmp	.+106    	; 0x1aa8 <usart_set_baudrate+0x1be>
		} else {
			baud <<= exp + 3;
    1a3e:	83 e0       	ldi	r24, 0x03	; 3
    1a40:	8c 0f       	add	r24, r28
    1a42:	a5 01       	movw	r20, r10
    1a44:	94 01       	movw	r18, r8
    1a46:	04 c0       	rjmp	.+8      	; 0x1a50 <usart_set_baudrate+0x166>
    1a48:	22 0f       	add	r18, r18
    1a4a:	33 1f       	adc	r19, r19
    1a4c:	44 1f       	adc	r20, r20
    1a4e:	55 1f       	adc	r21, r21
    1a50:	8a 95       	dec	r24
    1a52:	d2 f7       	brpl	.-12     	; 0x1a48 <usart_set_baudrate+0x15e>
			div = (cpu_hz + baud / 2) / baud;
    1a54:	da 01       	movw	r26, r20
    1a56:	c9 01       	movw	r24, r18
    1a58:	b6 95       	lsr	r27
    1a5a:	a7 95       	ror	r26
    1a5c:	97 95       	ror	r25
    1a5e:	87 95       	ror	r24
    1a60:	bc 01       	movw	r22, r24
    1a62:	cd 01       	movw	r24, r26
    1a64:	64 0d       	add	r22, r4
    1a66:	75 1d       	adc	r23, r5
    1a68:	86 1d       	adc	r24, r6
    1a6a:	97 1d       	adc	r25, r7
    1a6c:	80 d5       	rcall	.+2816   	; 0x256e <__udivmodsi4>
    1a6e:	1c c0       	rjmp	.+56     	; 0x1aa8 <usart_set_baudrate+0x1be>
		}
	} else {
		/* We will always do a right shift in this case, but we need to
		 * shift three extra positions because of the divide-by-8.
		 */
		baud <<= exp + 3;
    1a70:	83 e0       	ldi	r24, 0x03	; 3
    1a72:	8c 0f       	add	r24, r28
    1a74:	a5 01       	movw	r20, r10
    1a76:	94 01       	movw	r18, r8
    1a78:	04 c0       	rjmp	.+8      	; 0x1a82 <usart_set_baudrate+0x198>
    1a7a:	22 0f       	add	r18, r18
    1a7c:	33 1f       	adc	r19, r19
    1a7e:	44 1f       	adc	r20, r20
    1a80:	55 1f       	adc	r21, r21
    1a82:	8a 95       	dec	r24
    1a84:	d2 f7       	brpl	.-12     	; 0x1a7a <usart_set_baudrate+0x190>
		div = (cpu_hz + baud / 2) / baud - 1;
    1a86:	da 01       	movw	r26, r20
    1a88:	c9 01       	movw	r24, r18
    1a8a:	b6 95       	lsr	r27
    1a8c:	a7 95       	ror	r26
    1a8e:	97 95       	ror	r25
    1a90:	87 95       	ror	r24
    1a92:	bc 01       	movw	r22, r24
    1a94:	cd 01       	movw	r24, r26
    1a96:	64 0d       	add	r22, r4
    1a98:	75 1d       	adc	r23, r5
    1a9a:	86 1d       	adc	r24, r6
    1a9c:	97 1d       	adc	r25, r7
    1a9e:	67 d5       	rcall	.+2766   	; 0x256e <__udivmodsi4>
    1aa0:	21 50       	subi	r18, 0x01	; 1
    1aa2:	31 09       	sbc	r19, r1
    1aa4:	41 09       	sbc	r20, r1
    1aa6:	51 09       	sbc	r21, r1
	}

	(usart)->BAUDCTRLB = (uint8_t)(((div >> 8) & 0X0F) | (exp << 4));
    1aa8:	83 2f       	mov	r24, r19
    1aaa:	8f 70       	andi	r24, 0x0F	; 15
    1aac:	c2 95       	swap	r28
    1aae:	c0 7f       	andi	r28, 0xF0	; 240
    1ab0:	c8 2b       	or	r28, r24
    1ab2:	f7 01       	movw	r30, r14
    1ab4:	c7 83       	std	Z+7, r28	; 0x07
	(usart)->BAUDCTRLA = (uint8_t)div;
    1ab6:	26 83       	std	Z+6, r18	; 0x06

	return true;
    1ab8:	81 e0       	ldi	r24, 0x01	; 1
    1aba:	18 c0       	rjmp	.+48     	; 0x1aec <usart_set_baudrate+0x202>
		max_rate /= 2;
		min_rate /= 2;
	}

	if ((baud > max_rate) || (baud < min_rate)) {
		return false;
    1abc:	80 e0       	ldi	r24, 0x00	; 0
    1abe:	16 c0       	rjmp	.+44     	; 0x1aec <usart_set_baudrate+0x202>
    1ac0:	80 e0       	ldi	r24, 0x00	; 0
    1ac2:	14 c0       	rjmp	.+40     	; 0x1aec <usart_set_baudrate+0x202>
	if (exp < 0) {
		/* We are supposed to subtract 1, then apply BSCALE. We want to
		 * apply BSCALE first, so we need to turn everything inside the
		 * parenthesis into a single fractional expression.
		 */
		cpu_hz -= 8 * baud;
    1ac4:	d5 01       	movw	r26, r10
    1ac6:	c4 01       	movw	r24, r8
    1ac8:	88 0f       	add	r24, r24
    1aca:	99 1f       	adc	r25, r25
    1acc:	aa 1f       	adc	r26, r26
    1ace:	bb 1f       	adc	r27, r27
    1ad0:	88 0f       	add	r24, r24
    1ad2:	99 1f       	adc	r25, r25
    1ad4:	aa 1f       	adc	r26, r26
    1ad6:	bb 1f       	adc	r27, r27
    1ad8:	88 0f       	add	r24, r24
    1ada:	99 1f       	adc	r25, r25
    1adc:	aa 1f       	adc	r26, r26
    1ade:	bb 1f       	adc	r27, r27
    1ae0:	48 1a       	sub	r4, r24
    1ae2:	59 0a       	sbc	r5, r25
    1ae4:	6a 0a       	sbc	r6, r26
    1ae6:	7b 0a       	sbc	r7, r27

	/* Find the lowest possible exponent. */
	limit = 0xfffU >> 4;
	ratio = cpu_hz / baud;

	for (exp = -7; exp < 7; exp++) {
    1ae8:	c9 ef       	ldi	r28, 0xF9	; 249
    1aea:	8c cf       	rjmp	.-232    	; 0x1a04 <usart_set_baudrate+0x11a>

	(usart)->BAUDCTRLB = (uint8_t)(((div >> 8) & 0X0F) | (exp << 4));
	(usart)->BAUDCTRLA = (uint8_t)div;

	return true;
}
    1aec:	cf 91       	pop	r28
    1aee:	1f 91       	pop	r17
    1af0:	0f 91       	pop	r16
    1af2:	ff 90       	pop	r15
    1af4:	ef 90       	pop	r14
    1af6:	bf 90       	pop	r11
    1af8:	af 90       	pop	r10
    1afa:	9f 90       	pop	r9
    1afc:	8f 90       	pop	r8
    1afe:	7f 90       	pop	r7
    1b00:	6f 90       	pop	r6
    1b02:	5f 90       	pop	r5
    1b04:	4f 90       	pop	r4
    1b06:	08 95       	ret

00001b08 <usart_init_rs232>:
 *
 * \retval true if the initialization was successfull
 * \retval false if the initialization failed (error in baud rate calculation)
 */
bool usart_init_rs232(USART_t *usart, const usart_rs232_options_t *opt)
{
    1b08:	0f 93       	push	r16
    1b0a:	1f 93       	push	r17
    1b0c:	cf 93       	push	r28
    1b0e:	df 93       	push	r29
    1b10:	ec 01       	movw	r28, r24
    1b12:	8b 01       	movw	r16, r22
 *
 * \param module Pointer to the module's base address.
 */
static inline void sysclk_enable_peripheral_clock(const volatile void *module)
{
	if (module == NULL) {
    1b14:	00 97       	sbiw	r24, 0x00	; 0
    1b16:	09 f4       	brne	.+2      	; 0x1b1a <usart_init_rs232+0x12>
    1b18:	5d c1       	rjmp	.+698    	; 0x1dd4 <usart_init_rs232+0x2cc>
		Assert(false);
	}
#ifdef AES
	else if (module == &AES) {
    1b1a:	80 3c       	cpi	r24, 0xC0	; 192
    1b1c:	91 05       	cpc	r25, r1
    1b1e:	29 f4       	brne	.+10     	; 0x1b2a <usart_init_rs232+0x22>
		sysclk_enable_module(SYSCLK_PORT_GEN, SYSCLK_AES);
    1b20:	60 e1       	ldi	r22, 0x10	; 16
    1b22:	80 e0       	ldi	r24, 0x00	; 0
    1b24:	0e 94 5a 01 	call	0x2b4	; 0x2b4 <sysclk_enable_module>
    1b28:	55 c1       	rjmp	.+682    	; 0x1dd4 <usart_init_rs232+0x2cc>
	}
#endif
#ifdef EBI
	else if (module == &EBI) {
    1b2a:	c0 34       	cpi	r28, 0x40	; 64
    1b2c:	84 e0       	ldi	r24, 0x04	; 4
    1b2e:	d8 07       	cpc	r29, r24
    1b30:	29 f4       	brne	.+10     	; 0x1b3c <usart_init_rs232+0x34>
		sysclk_enable_module(SYSCLK_PORT_GEN, SYSCLK_EBI);
    1b32:	68 e0       	ldi	r22, 0x08	; 8
    1b34:	80 e0       	ldi	r24, 0x00	; 0
    1b36:	0e 94 5a 01 	call	0x2b4	; 0x2b4 <sysclk_enable_module>
    1b3a:	4c c1       	rjmp	.+664    	; 0x1dd4 <usart_init_rs232+0x2cc>
	}
#endif
#ifdef RTC
	else if (module == &RTC) {
    1b3c:	c1 15       	cp	r28, r1
    1b3e:	e4 e0       	ldi	r30, 0x04	; 4
    1b40:	de 07       	cpc	r29, r30
    1b42:	29 f4       	brne	.+10     	; 0x1b4e <usart_init_rs232+0x46>
		sysclk_enable_module(SYSCLK_PORT_GEN, SYSCLK_RTC);
    1b44:	64 e0       	ldi	r22, 0x04	; 4
    1b46:	80 e0       	ldi	r24, 0x00	; 0
    1b48:	0e 94 5a 01 	call	0x2b4	; 0x2b4 <sysclk_enable_module>
    1b4c:	43 c1       	rjmp	.+646    	; 0x1dd4 <usart_init_rs232+0x2cc>
	}
#endif
#ifdef EVSYS
	else if (module == &EVSYS) {
    1b4e:	c0 38       	cpi	r28, 0x80	; 128
    1b50:	f1 e0       	ldi	r31, 0x01	; 1
    1b52:	df 07       	cpc	r29, r31
    1b54:	29 f4       	brne	.+10     	; 0x1b60 <usart_init_rs232+0x58>
		sysclk_enable_module(SYSCLK_PORT_GEN, SYSCLK_EVSYS);
    1b56:	62 e0       	ldi	r22, 0x02	; 2
    1b58:	80 e0       	ldi	r24, 0x00	; 0
    1b5a:	0e 94 5a 01 	call	0x2b4	; 0x2b4 <sysclk_enable_module>
    1b5e:	3a c1       	rjmp	.+628    	; 0x1dd4 <usart_init_rs232+0x2cc>
	}
#endif
#ifdef DMA
	else if (module == &DMA) {
    1b60:	c1 15       	cp	r28, r1
    1b62:	81 e0       	ldi	r24, 0x01	; 1
    1b64:	d8 07       	cpc	r29, r24
    1b66:	29 f4       	brne	.+10     	; 0x1b72 <usart_init_rs232+0x6a>
		sysclk_enable_module(SYSCLK_PORT_GEN, SYSCLK_DMA);
    1b68:	61 e0       	ldi	r22, 0x01	; 1
    1b6a:	80 e0       	ldi	r24, 0x00	; 0
    1b6c:	0e 94 5a 01 	call	0x2b4	; 0x2b4 <sysclk_enable_module>
    1b70:	31 c1       	rjmp	.+610    	; 0x1dd4 <usart_init_rs232+0x2cc>
	else if (module == &EDMA) {
		sysclk_enable_module(SYSCLK_PORT_GEN, SYSCLK_EDMA);
	}
#endif
#ifdef ACA
	else if (module == &ACA) {
    1b72:	c0 38       	cpi	r28, 0x80	; 128
    1b74:	e3 e0       	ldi	r30, 0x03	; 3
    1b76:	de 07       	cpc	r29, r30
    1b78:	29 f4       	brne	.+10     	; 0x1b84 <usart_init_rs232+0x7c>
		sysclk_enable_module(SYSCLK_PORT_A, SYSCLK_AC);
    1b7a:	61 e0       	ldi	r22, 0x01	; 1
    1b7c:	81 e0       	ldi	r24, 0x01	; 1
    1b7e:	0e 94 5a 01 	call	0x2b4	; 0x2b4 <sysclk_enable_module>
    1b82:	28 c1       	rjmp	.+592    	; 0x1dd4 <usart_init_rs232+0x2cc>
	}
#endif
#ifdef ACB
	else if (module == &ACB) {
    1b84:	c0 39       	cpi	r28, 0x90	; 144
    1b86:	f3 e0       	ldi	r31, 0x03	; 3
    1b88:	df 07       	cpc	r29, r31
    1b8a:	29 f4       	brne	.+10     	; 0x1b96 <usart_init_rs232+0x8e>
		sysclk_enable_module(SYSCLK_PORT_B, SYSCLK_AC);
    1b8c:	61 e0       	ldi	r22, 0x01	; 1
    1b8e:	82 e0       	ldi	r24, 0x02	; 2
    1b90:	0e 94 5a 01 	call	0x2b4	; 0x2b4 <sysclk_enable_module>
    1b94:	1f c1       	rjmp	.+574    	; 0x1dd4 <usart_init_rs232+0x2cc>
	}
#endif
#ifdef ADCA
	else if (module == &ADCA) {
    1b96:	c1 15       	cp	r28, r1
    1b98:	82 e0       	ldi	r24, 0x02	; 2
    1b9a:	d8 07       	cpc	r29, r24
    1b9c:	29 f4       	brne	.+10     	; 0x1ba8 <usart_init_rs232+0xa0>
		sysclk_enable_module(SYSCLK_PORT_A, SYSCLK_ADC);
    1b9e:	62 e0       	ldi	r22, 0x02	; 2
    1ba0:	81 e0       	ldi	r24, 0x01	; 1
    1ba2:	0e 94 5a 01 	call	0x2b4	; 0x2b4 <sysclk_enable_module>
    1ba6:	16 c1       	rjmp	.+556    	; 0x1dd4 <usart_init_rs232+0x2cc>
	}
#endif
#ifdef ADCB
	else if (module == &ADCB) {
    1ba8:	c0 34       	cpi	r28, 0x40	; 64
    1baa:	e2 e0       	ldi	r30, 0x02	; 2
    1bac:	de 07       	cpc	r29, r30
    1bae:	29 f4       	brne	.+10     	; 0x1bba <usart_init_rs232+0xb2>
		sysclk_enable_module(SYSCLK_PORT_B, SYSCLK_ADC);
    1bb0:	62 e0       	ldi	r22, 0x02	; 2
    1bb2:	82 e0       	ldi	r24, 0x02	; 2
    1bb4:	0e 94 5a 01 	call	0x2b4	; 0x2b4 <sysclk_enable_module>
    1bb8:	0d c1       	rjmp	.+538    	; 0x1dd4 <usart_init_rs232+0x2cc>
	}
#endif
#ifdef DACA
	else if (module == &DACA) {
    1bba:	c1 15       	cp	r28, r1
    1bbc:	f3 e0       	ldi	r31, 0x03	; 3
    1bbe:	df 07       	cpc	r29, r31
    1bc0:	29 f4       	brne	.+10     	; 0x1bcc <usart_init_rs232+0xc4>
		sysclk_enable_module(SYSCLK_PORT_A, SYSCLK_DAC);
    1bc2:	64 e0       	ldi	r22, 0x04	; 4
    1bc4:	81 e0       	ldi	r24, 0x01	; 1
    1bc6:	0e 94 5a 01 	call	0x2b4	; 0x2b4 <sysclk_enable_module>
    1bca:	04 c1       	rjmp	.+520    	; 0x1dd4 <usart_init_rs232+0x2cc>
	}
#endif
// Workaround for bad XMEGA D header file
#if !XMEGA_D
#ifdef DACB
	else if (module == &DACB) {
    1bcc:	c0 32       	cpi	r28, 0x20	; 32
    1bce:	83 e0       	ldi	r24, 0x03	; 3
    1bd0:	d8 07       	cpc	r29, r24
    1bd2:	29 f4       	brne	.+10     	; 0x1bde <usart_init_rs232+0xd6>
		sysclk_enable_module(SYSCLK_PORT_B, SYSCLK_DAC);
    1bd4:	64 e0       	ldi	r22, 0x04	; 4
    1bd6:	82 e0       	ldi	r24, 0x02	; 2
    1bd8:	0e 94 5a 01 	call	0x2b4	; 0x2b4 <sysclk_enable_module>
    1bdc:	fb c0       	rjmp	.+502    	; 0x1dd4 <usart_init_rs232+0x2cc>
	}
#endif
#endif // Workaround end
#ifdef TCC0
	else if (module == &TCC0) {
    1bde:	c1 15       	cp	r28, r1
    1be0:	e8 e0       	ldi	r30, 0x08	; 8
    1be2:	de 07       	cpc	r29, r30
    1be4:	29 f4       	brne	.+10     	; 0x1bf0 <usart_init_rs232+0xe8>
		sysclk_enable_module(SYSCLK_PORT_C, SYSCLK_TC0);
    1be6:	61 e0       	ldi	r22, 0x01	; 1
    1be8:	83 e0       	ldi	r24, 0x03	; 3
    1bea:	0e 94 5a 01 	call	0x2b4	; 0x2b4 <sysclk_enable_module>
    1bee:	f2 c0       	rjmp	.+484    	; 0x1dd4 <usart_init_rs232+0x2cc>
	}
#endif
#ifdef TCD0
	else if (module == &TCD0) {
    1bf0:	c1 15       	cp	r28, r1
    1bf2:	f9 e0       	ldi	r31, 0x09	; 9
    1bf4:	df 07       	cpc	r29, r31
    1bf6:	29 f4       	brne	.+10     	; 0x1c02 <usart_init_rs232+0xfa>
		sysclk_enable_module(SYSCLK_PORT_D, SYSCLK_TC0);
    1bf8:	61 e0       	ldi	r22, 0x01	; 1
    1bfa:	84 e0       	ldi	r24, 0x04	; 4
    1bfc:	0e 94 5a 01 	call	0x2b4	; 0x2b4 <sysclk_enable_module>
    1c00:	e9 c0       	rjmp	.+466    	; 0x1dd4 <usart_init_rs232+0x2cc>
	}
#endif
#ifdef TCE0
	else if (module == &TCE0) {
    1c02:	c1 15       	cp	r28, r1
    1c04:	8a e0       	ldi	r24, 0x0A	; 10
    1c06:	d8 07       	cpc	r29, r24
    1c08:	29 f4       	brne	.+10     	; 0x1c14 <usart_init_rs232+0x10c>
		sysclk_enable_module(SYSCLK_PORT_E, SYSCLK_TC0);
    1c0a:	61 e0       	ldi	r22, 0x01	; 1
    1c0c:	85 e0       	ldi	r24, 0x05	; 5
    1c0e:	0e 94 5a 01 	call	0x2b4	; 0x2b4 <sysclk_enable_module>
    1c12:	e0 c0       	rjmp	.+448    	; 0x1dd4 <usart_init_rs232+0x2cc>
	}
#endif
#ifdef TCF0
	else if (module == &TCF0) {
    1c14:	c1 15       	cp	r28, r1
    1c16:	eb e0       	ldi	r30, 0x0B	; 11
    1c18:	de 07       	cpc	r29, r30
    1c1a:	29 f4       	brne	.+10     	; 0x1c26 <usart_init_rs232+0x11e>
		sysclk_enable_module(SYSCLK_PORT_F, SYSCLK_TC0);
    1c1c:	61 e0       	ldi	r22, 0x01	; 1
    1c1e:	86 e0       	ldi	r24, 0x06	; 6
    1c20:	0e 94 5a 01 	call	0x2b4	; 0x2b4 <sysclk_enable_module>
    1c24:	d7 c0       	rjmp	.+430    	; 0x1dd4 <usart_init_rs232+0x2cc>
	}
#endif
#ifdef TCC1
	else if (module == &TCC1) {
    1c26:	c0 34       	cpi	r28, 0x40	; 64
    1c28:	f8 e0       	ldi	r31, 0x08	; 8
    1c2a:	df 07       	cpc	r29, r31
    1c2c:	29 f4       	brne	.+10     	; 0x1c38 <usart_init_rs232+0x130>
		sysclk_enable_module(SYSCLK_PORT_C, SYSCLK_TC1);
    1c2e:	62 e0       	ldi	r22, 0x02	; 2
    1c30:	83 e0       	ldi	r24, 0x03	; 3
    1c32:	0e 94 5a 01 	call	0x2b4	; 0x2b4 <sysclk_enable_module>
    1c36:	ce c0       	rjmp	.+412    	; 0x1dd4 <usart_init_rs232+0x2cc>
	}
#endif
#ifdef TCD1
	else if (module == &TCD1) {
    1c38:	c0 34       	cpi	r28, 0x40	; 64
    1c3a:	89 e0       	ldi	r24, 0x09	; 9
    1c3c:	d8 07       	cpc	r29, r24
    1c3e:	29 f4       	brne	.+10     	; 0x1c4a <usart_init_rs232+0x142>
		sysclk_enable_module(SYSCLK_PORT_D, SYSCLK_TC1);
    1c40:	62 e0       	ldi	r22, 0x02	; 2
    1c42:	84 e0       	ldi	r24, 0x04	; 4
    1c44:	0e 94 5a 01 	call	0x2b4	; 0x2b4 <sysclk_enable_module>
    1c48:	c5 c0       	rjmp	.+394    	; 0x1dd4 <usart_init_rs232+0x2cc>
	}
#endif
#ifdef TCE1
	else if (module == &TCE1) {
    1c4a:	c0 34       	cpi	r28, 0x40	; 64
    1c4c:	ea e0       	ldi	r30, 0x0A	; 10
    1c4e:	de 07       	cpc	r29, r30
    1c50:	29 f4       	brne	.+10     	; 0x1c5c <usart_init_rs232+0x154>
		sysclk_enable_module(SYSCLK_PORT_E, SYSCLK_TC1);
    1c52:	62 e0       	ldi	r22, 0x02	; 2
    1c54:	85 e0       	ldi	r24, 0x05	; 5
    1c56:	0e 94 5a 01 	call	0x2b4	; 0x2b4 <sysclk_enable_module>
    1c5a:	bc c0       	rjmp	.+376    	; 0x1dd4 <usart_init_rs232+0x2cc>
	}
#endif
#ifdef TCF1
	else if (module == &TCF1) {
    1c5c:	c0 34       	cpi	r28, 0x40	; 64
    1c5e:	fb e0       	ldi	r31, 0x0B	; 11
    1c60:	df 07       	cpc	r29, r31
    1c62:	29 f4       	brne	.+10     	; 0x1c6e <usart_init_rs232+0x166>
		sysclk_enable_module(SYSCLK_PORT_F, SYSCLK_TC1);
    1c64:	62 e0       	ldi	r22, 0x02	; 2
    1c66:	86 e0       	ldi	r24, 0x06	; 6
    1c68:	0e 94 5a 01 	call	0x2b4	; 0x2b4 <sysclk_enable_module>
    1c6c:	b3 c0       	rjmp	.+358    	; 0x1dd4 <usart_init_rs232+0x2cc>
	else if (module == &TCD5) {
		sysclk_enable_module(SYSCLK_PORT_D, SYSCLK_TC5);
	}
#endif
#ifdef HIRESC
	else if (module == &HIRESC) {
    1c6e:	c0 39       	cpi	r28, 0x90	; 144
    1c70:	88 e0       	ldi	r24, 0x08	; 8
    1c72:	d8 07       	cpc	r29, r24
    1c74:	29 f4       	brne	.+10     	; 0x1c80 <usart_init_rs232+0x178>
			sysclk_enable_module(SYSCLK_PORT_C, SYSCLK_HIRES);
    1c76:	64 e0       	ldi	r22, 0x04	; 4
    1c78:	83 e0       	ldi	r24, 0x03	; 3
    1c7a:	0e 94 5a 01 	call	0x2b4	; 0x2b4 <sysclk_enable_module>
    1c7e:	aa c0       	rjmp	.+340    	; 0x1dd4 <usart_init_rs232+0x2cc>
	}
#endif
#ifdef HIRESD
	else if (module == &HIRESD) {
    1c80:	c0 39       	cpi	r28, 0x90	; 144
    1c82:	e9 e0       	ldi	r30, 0x09	; 9
    1c84:	de 07       	cpc	r29, r30
    1c86:	29 f4       	brne	.+10     	; 0x1c92 <usart_init_rs232+0x18a>
		sysclk_enable_module(SYSCLK_PORT_D, SYSCLK_HIRES);
    1c88:	64 e0       	ldi	r22, 0x04	; 4
    1c8a:	84 e0       	ldi	r24, 0x04	; 4
    1c8c:	0e 94 5a 01 	call	0x2b4	; 0x2b4 <sysclk_enable_module>
    1c90:	a1 c0       	rjmp	.+322    	; 0x1dd4 <usart_init_rs232+0x2cc>
	}
#endif
#ifdef HIRESE
	else if (module == &HIRESE) {
    1c92:	c0 39       	cpi	r28, 0x90	; 144
    1c94:	fa e0       	ldi	r31, 0x0A	; 10
    1c96:	df 07       	cpc	r29, r31
    1c98:	29 f4       	brne	.+10     	; 0x1ca4 <usart_init_rs232+0x19c>
		sysclk_enable_module(SYSCLK_PORT_E, SYSCLK_HIRES);
    1c9a:	64 e0       	ldi	r22, 0x04	; 4
    1c9c:	85 e0       	ldi	r24, 0x05	; 5
    1c9e:	0e 94 5a 01 	call	0x2b4	; 0x2b4 <sysclk_enable_module>
    1ca2:	98 c0       	rjmp	.+304    	; 0x1dd4 <usart_init_rs232+0x2cc>
	}
#endif
#ifdef HIRESF
	else if (module == &HIRESF) {
    1ca4:	c0 39       	cpi	r28, 0x90	; 144
    1ca6:	8b e0       	ldi	r24, 0x0B	; 11
    1ca8:	d8 07       	cpc	r29, r24
    1caa:	29 f4       	brne	.+10     	; 0x1cb6 <usart_init_rs232+0x1ae>
		sysclk_enable_module(SYSCLK_PORT_F, SYSCLK_HIRES);
    1cac:	64 e0       	ldi	r22, 0x04	; 4
    1cae:	86 e0       	ldi	r24, 0x06	; 6
    1cb0:	0e 94 5a 01 	call	0x2b4	; 0x2b4 <sysclk_enable_module>
    1cb4:	8f c0       	rjmp	.+286    	; 0x1dd4 <usart_init_rs232+0x2cc>
	}
#endif
#ifdef SPIC
	else if (module == &SPIC) {
    1cb6:	c0 3c       	cpi	r28, 0xC0	; 192
    1cb8:	e8 e0       	ldi	r30, 0x08	; 8
    1cba:	de 07       	cpc	r29, r30
    1cbc:	29 f4       	brne	.+10     	; 0x1cc8 <usart_init_rs232+0x1c0>
		sysclk_enable_module(SYSCLK_PORT_C, SYSCLK_SPI);
    1cbe:	68 e0       	ldi	r22, 0x08	; 8
    1cc0:	83 e0       	ldi	r24, 0x03	; 3
    1cc2:	0e 94 5a 01 	call	0x2b4	; 0x2b4 <sysclk_enable_module>
    1cc6:	86 c0       	rjmp	.+268    	; 0x1dd4 <usart_init_rs232+0x2cc>
	}
#endif
#ifdef SPID
	else if (module == &SPID) {
    1cc8:	c0 3c       	cpi	r28, 0xC0	; 192
    1cca:	f9 e0       	ldi	r31, 0x09	; 9
    1ccc:	df 07       	cpc	r29, r31
    1cce:	29 f4       	brne	.+10     	; 0x1cda <usart_init_rs232+0x1d2>
		sysclk_enable_module(SYSCLK_PORT_D, SYSCLK_SPI);
    1cd0:	68 e0       	ldi	r22, 0x08	; 8
    1cd2:	84 e0       	ldi	r24, 0x04	; 4
    1cd4:	0e 94 5a 01 	call	0x2b4	; 0x2b4 <sysclk_enable_module>
    1cd8:	7d c0       	rjmp	.+250    	; 0x1dd4 <usart_init_rs232+0x2cc>
	}
#endif
#ifdef SPIE
	else if (module == &SPIE) {
    1cda:	c0 3c       	cpi	r28, 0xC0	; 192
    1cdc:	8a e0       	ldi	r24, 0x0A	; 10
    1cde:	d8 07       	cpc	r29, r24
    1ce0:	29 f4       	brne	.+10     	; 0x1cec <usart_init_rs232+0x1e4>
		sysclk_enable_module(SYSCLK_PORT_E, SYSCLK_SPI);
    1ce2:	68 e0       	ldi	r22, 0x08	; 8
    1ce4:	85 e0       	ldi	r24, 0x05	; 5
    1ce6:	0e 94 5a 01 	call	0x2b4	; 0x2b4 <sysclk_enable_module>
    1cea:	74 c0       	rjmp	.+232    	; 0x1dd4 <usart_init_rs232+0x2cc>
	}
#endif
#ifdef SPIF
	else if (module == &SPIF) {
    1cec:	c0 3c       	cpi	r28, 0xC0	; 192
    1cee:	eb e0       	ldi	r30, 0x0B	; 11
    1cf0:	de 07       	cpc	r29, r30
    1cf2:	29 f4       	brne	.+10     	; 0x1cfe <usart_init_rs232+0x1f6>
		sysclk_enable_module(SYSCLK_PORT_F, SYSCLK_SPI);
    1cf4:	68 e0       	ldi	r22, 0x08	; 8
    1cf6:	86 e0       	ldi	r24, 0x06	; 6
    1cf8:	0e 94 5a 01 	call	0x2b4	; 0x2b4 <sysclk_enable_module>
    1cfc:	6b c0       	rjmp	.+214    	; 0x1dd4 <usart_init_rs232+0x2cc>
	}
#endif
#ifdef USARTC0
	else if (module == &USARTC0) {
    1cfe:	c0 3a       	cpi	r28, 0xA0	; 160
    1d00:	f8 e0       	ldi	r31, 0x08	; 8
    1d02:	df 07       	cpc	r29, r31
    1d04:	29 f4       	brne	.+10     	; 0x1d10 <usart_init_rs232+0x208>
		sysclk_enable_module(SYSCLK_PORT_C, SYSCLK_USART0);
    1d06:	60 e1       	ldi	r22, 0x10	; 16
    1d08:	83 e0       	ldi	r24, 0x03	; 3
    1d0a:	0e 94 5a 01 	call	0x2b4	; 0x2b4 <sysclk_enable_module>
    1d0e:	62 c0       	rjmp	.+196    	; 0x1dd4 <usart_init_rs232+0x2cc>
	}
#endif
#ifdef USARTD0
	else if (module == &USARTD0) {
    1d10:	c0 3a       	cpi	r28, 0xA0	; 160
    1d12:	89 e0       	ldi	r24, 0x09	; 9
    1d14:	d8 07       	cpc	r29, r24
    1d16:	29 f4       	brne	.+10     	; 0x1d22 <usart_init_rs232+0x21a>
		sysclk_enable_module(SYSCLK_PORT_D, SYSCLK_USART0);
    1d18:	60 e1       	ldi	r22, 0x10	; 16
    1d1a:	84 e0       	ldi	r24, 0x04	; 4
    1d1c:	0e 94 5a 01 	call	0x2b4	; 0x2b4 <sysclk_enable_module>
    1d20:	59 c0       	rjmp	.+178    	; 0x1dd4 <usart_init_rs232+0x2cc>
	}
#endif
#ifdef USARTE0
	else if (module == &USARTE0) {
    1d22:	c0 3a       	cpi	r28, 0xA0	; 160
    1d24:	ea e0       	ldi	r30, 0x0A	; 10
    1d26:	de 07       	cpc	r29, r30
    1d28:	29 f4       	brne	.+10     	; 0x1d34 <usart_init_rs232+0x22c>
		sysclk_enable_module(SYSCLK_PORT_E, SYSCLK_USART0);
    1d2a:	60 e1       	ldi	r22, 0x10	; 16
    1d2c:	85 e0       	ldi	r24, 0x05	; 5
    1d2e:	0e 94 5a 01 	call	0x2b4	; 0x2b4 <sysclk_enable_module>
    1d32:	50 c0       	rjmp	.+160    	; 0x1dd4 <usart_init_rs232+0x2cc>
	}
#endif
#ifdef USARTF0
	else if (module == &USARTF0) {
    1d34:	c0 3a       	cpi	r28, 0xA0	; 160
    1d36:	fb e0       	ldi	r31, 0x0B	; 11
    1d38:	df 07       	cpc	r29, r31
    1d3a:	29 f4       	brne	.+10     	; 0x1d46 <usart_init_rs232+0x23e>
		sysclk_enable_module(SYSCLK_PORT_F, SYSCLK_USART0);
    1d3c:	60 e1       	ldi	r22, 0x10	; 16
    1d3e:	86 e0       	ldi	r24, 0x06	; 6
    1d40:	0e 94 5a 01 	call	0x2b4	; 0x2b4 <sysclk_enable_module>
    1d44:	47 c0       	rjmp	.+142    	; 0x1dd4 <usart_init_rs232+0x2cc>
	}
#endif
#ifdef USARTC1
	else if (module == &USARTC1) {
    1d46:	c0 3b       	cpi	r28, 0xB0	; 176
    1d48:	88 e0       	ldi	r24, 0x08	; 8
    1d4a:	d8 07       	cpc	r29, r24
    1d4c:	29 f4       	brne	.+10     	; 0x1d58 <usart_init_rs232+0x250>
		sysclk_enable_module(SYSCLK_PORT_C, SYSCLK_USART1);
    1d4e:	60 e2       	ldi	r22, 0x20	; 32
    1d50:	83 e0       	ldi	r24, 0x03	; 3
    1d52:	0e 94 5a 01 	call	0x2b4	; 0x2b4 <sysclk_enable_module>
    1d56:	3e c0       	rjmp	.+124    	; 0x1dd4 <usart_init_rs232+0x2cc>
	}
#endif
#ifdef USARTD1
	else if (module == &USARTD1) {
    1d58:	c0 3b       	cpi	r28, 0xB0	; 176
    1d5a:	e9 e0       	ldi	r30, 0x09	; 9
    1d5c:	de 07       	cpc	r29, r30
    1d5e:	29 f4       	brne	.+10     	; 0x1d6a <usart_init_rs232+0x262>
		sysclk_enable_module(SYSCLK_PORT_D, SYSCLK_USART1);
    1d60:	60 e2       	ldi	r22, 0x20	; 32
    1d62:	84 e0       	ldi	r24, 0x04	; 4
    1d64:	0e 94 5a 01 	call	0x2b4	; 0x2b4 <sysclk_enable_module>
    1d68:	35 c0       	rjmp	.+106    	; 0x1dd4 <usart_init_rs232+0x2cc>
	}
#endif
#ifdef USARTE1
	else if (module == &USARTE1) {
    1d6a:	c0 3b       	cpi	r28, 0xB0	; 176
    1d6c:	fa e0       	ldi	r31, 0x0A	; 10
    1d6e:	df 07       	cpc	r29, r31
    1d70:	29 f4       	brne	.+10     	; 0x1d7c <usart_init_rs232+0x274>
		sysclk_enable_module(SYSCLK_PORT_E, SYSCLK_USART1);
    1d72:	60 e2       	ldi	r22, 0x20	; 32
    1d74:	85 e0       	ldi	r24, 0x05	; 5
    1d76:	0e 94 5a 01 	call	0x2b4	; 0x2b4 <sysclk_enable_module>
    1d7a:	2c c0       	rjmp	.+88     	; 0x1dd4 <usart_init_rs232+0x2cc>
	}
#endif
#ifdef USARTF1
	else if (module == &USARTF1) {
    1d7c:	c0 3b       	cpi	r28, 0xB0	; 176
    1d7e:	8b e0       	ldi	r24, 0x0B	; 11
    1d80:	d8 07       	cpc	r29, r24
    1d82:	29 f4       	brne	.+10     	; 0x1d8e <usart_init_rs232+0x286>
		sysclk_enable_module(SYSCLK_PORT_F, SYSCLK_USART1);
    1d84:	60 e2       	ldi	r22, 0x20	; 32
    1d86:	86 e0       	ldi	r24, 0x06	; 6
    1d88:	0e 94 5a 01 	call	0x2b4	; 0x2b4 <sysclk_enable_module>
    1d8c:	23 c0       	rjmp	.+70     	; 0x1dd4 <usart_init_rs232+0x2cc>
	}
#endif
#ifdef TWIC
	else if (module == &TWIC) {
    1d8e:	c0 38       	cpi	r28, 0x80	; 128
    1d90:	e4 e0       	ldi	r30, 0x04	; 4
    1d92:	de 07       	cpc	r29, r30
    1d94:	29 f4       	brne	.+10     	; 0x1da0 <usart_init_rs232+0x298>
		sysclk_enable_module(SYSCLK_PORT_C, SYSCLK_TWI);
    1d96:	60 e4       	ldi	r22, 0x40	; 64
    1d98:	83 e0       	ldi	r24, 0x03	; 3
    1d9a:	0e 94 5a 01 	call	0x2b4	; 0x2b4 <sysclk_enable_module>
    1d9e:	1a c0       	rjmp	.+52     	; 0x1dd4 <usart_init_rs232+0x2cc>
	}
#endif
#ifdef TWID
	else if (module == &TWID) {
    1da0:	c0 39       	cpi	r28, 0x90	; 144
    1da2:	f4 e0       	ldi	r31, 0x04	; 4
    1da4:	df 07       	cpc	r29, r31
    1da6:	29 f4       	brne	.+10     	; 0x1db2 <usart_init_rs232+0x2aa>
		sysclk_enable_module(SYSCLK_PORT_D, SYSCLK_TWI);
    1da8:	60 e4       	ldi	r22, 0x40	; 64
    1daa:	84 e0       	ldi	r24, 0x04	; 4
    1dac:	0e 94 5a 01 	call	0x2b4	; 0x2b4 <sysclk_enable_module>
    1db0:	11 c0       	rjmp	.+34     	; 0x1dd4 <usart_init_rs232+0x2cc>
	}
#endif
#ifdef TWIE
	else if (module == &TWIE) {
    1db2:	c0 3a       	cpi	r28, 0xA0	; 160
    1db4:	84 e0       	ldi	r24, 0x04	; 4
    1db6:	d8 07       	cpc	r29, r24
    1db8:	29 f4       	brne	.+10     	; 0x1dc4 <usart_init_rs232+0x2bc>
		sysclk_enable_module(SYSCLK_PORT_E, SYSCLK_TWI);
    1dba:	60 e4       	ldi	r22, 0x40	; 64
    1dbc:	85 e0       	ldi	r24, 0x05	; 5
    1dbe:	0e 94 5a 01 	call	0x2b4	; 0x2b4 <sysclk_enable_module>
    1dc2:	08 c0       	rjmp	.+16     	; 0x1dd4 <usart_init_rs232+0x2cc>
	}
#endif
#ifdef TWIF
	else if (module == &TWIF) {
    1dc4:	c0 3b       	cpi	r28, 0xB0	; 176
    1dc6:	e4 e0       	ldi	r30, 0x04	; 4
    1dc8:	de 07       	cpc	r29, r30
    1dca:	21 f4       	brne	.+8      	; 0x1dd4 <usart_init_rs232+0x2cc>
		sysclk_enable_module(SYSCLK_PORT_F, SYSCLK_TWI);
    1dcc:	60 e4       	ldi	r22, 0x40	; 64
    1dce:	86 e0       	ldi	r24, 0x06	; 6
    1dd0:	0e 94 5a 01 	call	0x2b4	; 0x2b4 <sysclk_enable_module>
 * - 0x2        : IrDA mode.
 * - 0x3        : Master SPI mode.
 */
static inline void usart_set_mode(USART_t *usart, USART_CMODE_t usartmode)
{
	(usart)->CTRLC = ((usart)->CTRLC & (~USART_CMODE_gm)) | usartmode;
    1dd4:	8d 81       	ldd	r24, Y+5	; 0x05
    1dd6:	8f 73       	andi	r24, 0x3F	; 63
    1dd8:	8d 83       	std	Y+5, r24	; 0x05
 *  \param twoStopBits Enable two stop bit mode. Use bool type.
 */
static inline void usart_format_set(USART_t *usart, USART_CHSIZE_t charSize,
		USART_PMODE_t parityMode, bool twoStopBits)
{
	(usart)->CTRLC = (uint8_t)charSize | parityMode
    1dda:	f8 01       	movw	r30, r16
    1ddc:	95 81       	ldd	r25, Z+5	; 0x05
    1dde:	84 81       	ldd	r24, Z+4	; 0x04
    1de0:	89 2b       	or	r24, r25
    1de2:	96 81       	ldd	r25, Z+6	; 0x06
    1de4:	91 11       	cpse	r25, r1
    1de6:	98 e0       	ldi	r25, 0x08	; 8
    1de8:	89 2b       	or	r24, r25
    1dea:	8d 83       	std	Y+5, r24	; 0x05
	bool result;
	sysclk_enable_peripheral_clock(usart);
	usart_set_mode(usart, USART_CMODE_ASYNCHRONOUS_gc);
	usart_format_set(usart, opt->charlength, opt->paritytype,
			opt->stopbits);
	result = usart_set_baudrate(usart, opt->baudrate, sysclk_get_per_hz());
    1dec:	f8 01       	movw	r30, r16
    1dee:	40 81       	ld	r20, Z
    1df0:	51 81       	ldd	r21, Z+1	; 0x01
    1df2:	62 81       	ldd	r22, Z+2	; 0x02
    1df4:	73 81       	ldd	r23, Z+3	; 0x03
    1df6:	00 e0       	ldi	r16, 0x00	; 0
    1df8:	18 e4       	ldi	r17, 0x48	; 72
    1dfa:	28 ee       	ldi	r18, 0xE8	; 232
    1dfc:	31 e0       	ldi	r19, 0x01	; 1
    1dfe:	ce 01       	movw	r24, r28
    1e00:	74 dd       	rcall	.-1304   	; 0x18ea <usart_set_baudrate>
 *
 * \param usart Pointer to the USART module.
 */
static inline void usart_tx_enable(USART_t *usart)
{
	(usart)->CTRLB |= USART_TXEN_bm;
    1e02:	9c 81       	ldd	r25, Y+4	; 0x04
    1e04:	98 60       	ori	r25, 0x08	; 8
    1e06:	9c 83       	std	Y+4, r25	; 0x04
 *
 * \param usart Pointer to the USART module
 */
static inline void usart_rx_enable(USART_t *usart)
{
	(usart)->CTRLB |= USART_RXEN_bm;
    1e08:	9c 81       	ldd	r25, Y+4	; 0x04
    1e0a:	90 61       	ori	r25, 0x10	; 16
    1e0c:	9c 83       	std	Y+4, r25	; 0x04
	usart_tx_enable(usart);
	usart_rx_enable(usart);
	
	return result;
}
    1e0e:	df 91       	pop	r29
    1e10:	cf 91       	pop	r28
    1e12:	1f 91       	pop	r17
    1e14:	0f 91       	pop	r16
    1e16:	08 95       	ret

00001e18 <u16BuffInit>:
#include <asf.h>
#include "RingBuff.h"

//the user initializes a p_bstru variable and passes it into the buff init and they can use the below functions to store data in it.
void u16BuffInit(p_bstru * P2_bstru)
{
    1e18:	0f 93       	push	r16
    1e1a:	1f 93       	push	r17
    1e1c:	cf 93       	push	r28
    1e1e:	df 93       	push	r29
    1e20:	ec 01       	movw	r28, r24
	printf("initfunction called\n");
    1e22:	84 e1       	ldi	r24, 0x14	; 20
    1e24:	90 e2       	ldi	r25, 0x20	; 32
    1e26:	57 d5       	rcall	.+2734   	; 0x28d6 <puts>
	*P2_bstru=malloc(sizeof(struct uint16RingBuff));
    1e28:	83 e0       	ldi	r24, 0x03	; 3
    1e2a:	90 e0       	ldi	r25, 0x00	; 0
    1e2c:	d6 d3       	rcall	.+1964   	; 0x25da <malloc>
    1e2e:	8c 01       	movw	r16, r24
    1e30:	88 83       	st	Y, r24
    1e32:	99 83       	std	Y+1, r25	; 0x01
	(*P2_bstru)->lastItem=BUFSIZE;
    1e34:	8a e0       	ldi	r24, 0x0A	; 10
    1e36:	f8 01       	movw	r30, r16
    1e38:	82 83       	std	Z+2, r24	; 0x02
	//initializes all items to zero
	(*P2_bstru)->data=malloc(sizeof(uint16_t)*BUFSIZE);
    1e3a:	84 e1       	ldi	r24, 0x14	; 20
    1e3c:	90 e0       	ldi	r25, 0x00	; 0
    1e3e:	cd d3       	rcall	.+1946   	; 0x25da <malloc>
    1e40:	f8 01       	movw	r30, r16
    1e42:	80 83       	st	Z, r24
    1e44:	91 83       	std	Z+1, r25	; 0x01
    1e46:	80 e0       	ldi	r24, 0x00	; 0
    1e48:	90 e0       	ldi	r25, 0x00	; 0
	for(int i=0;i<BUFSIZE;i++)
	{
		(*P2_bstru)->data[i]=0;
    1e4a:	e8 81       	ld	r30, Y
    1e4c:	f9 81       	ldd	r31, Y+1	; 0x01
    1e4e:	01 90       	ld	r0, Z+
    1e50:	f0 81       	ld	r31, Z
    1e52:	e0 2d       	mov	r30, r0
    1e54:	e8 0f       	add	r30, r24
    1e56:	f9 1f       	adc	r31, r25
    1e58:	10 82       	st	Z, r1
    1e5a:	11 82       	std	Z+1, r1	; 0x01
    1e5c:	02 96       	adiw	r24, 0x02	; 2
	printf("initfunction called\n");
	*P2_bstru=malloc(sizeof(struct uint16RingBuff));
	(*P2_bstru)->lastItem=BUFSIZE;
	//initializes all items to zero
	(*P2_bstru)->data=malloc(sizeof(uint16_t)*BUFSIZE);
	for(int i=0;i<BUFSIZE;i++)
    1e5e:	84 31       	cpi	r24, 0x14	; 20
    1e60:	91 05       	cpc	r25, r1
    1e62:	99 f7       	brne	.-26     	; 0x1e4a <u16BuffInit+0x32>
	{
		(*P2_bstru)->data[i]=0;
	}
	
}
    1e64:	df 91       	pop	r29
    1e66:	cf 91       	pop	r28
    1e68:	1f 91       	pop	r17
    1e6a:	0f 91       	pop	r16
    1e6c:	08 95       	ret

00001e6e <putu16>:
//adds an item to the ring buffer and increments last item variable
void putu16(p_bstru d_struct,uint16_t data)
{
    1e6e:	0f 93       	push	r16
    1e70:	1f 93       	push	r17
    1e72:	cf 93       	push	r28
    1e74:	df 93       	push	r29
	if(d_struct==NULL)return;
    1e76:	00 97       	sbiw	r24, 0x00	; 0
    1e78:	c9 f1       	breq	.+114    	; 0x1eec <putu16+0x7e>
    1e7a:	07 2f       	mov	r16, r23
    1e7c:	16 2f       	mov	r17, r22
    1e7e:	ec 01       	movw	r28, r24
	d_struct->lastItem=(d_struct->lastItem+1)%BUFSIZE;
    1e80:	8a 81       	ldd	r24, Y+2	; 0x02
    1e82:	90 e0       	ldi	r25, 0x00	; 0
    1e84:	01 96       	adiw	r24, 0x01	; 1
    1e86:	6a e0       	ldi	r22, 0x0A	; 10
    1e88:	70 e0       	ldi	r23, 0x00	; 0
    1e8a:	5e d3       	rcall	.+1724   	; 0x2548 <__divmodhi4>
    1e8c:	8a 83       	std	Y+2, r24	; 0x02
	printf("\n\nlast item index is : %i",d_struct->lastItem);
    1e8e:	99 27       	eor	r25, r25
    1e90:	9f 93       	push	r25
    1e92:	8f 93       	push	r24
    1e94:	88 e2       	ldi	r24, 0x28	; 40
    1e96:	90 e2       	ldi	r25, 0x20	; 32
    1e98:	9f 93       	push	r25
    1e9a:	8f 93       	push	r24
    1e9c:	09 d5       	rcall	.+2578   	; 0x28b0 <printf>
	d_struct->data[d_struct->lastItem]=data;
    1e9e:	ea 81       	ldd	r30, Y+2	; 0x02
    1ea0:	f0 e0       	ldi	r31, 0x00	; 0
    1ea2:	ee 0f       	add	r30, r30
    1ea4:	ff 1f       	adc	r31, r31
    1ea6:	88 81       	ld	r24, Y
    1ea8:	99 81       	ldd	r25, Y+1	; 0x01
    1eaa:	e8 0f       	add	r30, r24
    1eac:	f9 1f       	adc	r31, r25
    1eae:	10 83       	st	Z, r17
    1eb0:	01 83       	std	Z+1, r16	; 0x01
	printf("\n\n data written is %i",data);
    1eb2:	0f 93       	push	r16
    1eb4:	1f 93       	push	r17
    1eb6:	82 e4       	ldi	r24, 0x42	; 66
    1eb8:	90 e2       	ldi	r25, 0x20	; 32
    1eba:	9f 93       	push	r25
    1ebc:	8f 93       	push	r24
    1ebe:	f8 d4       	rcall	.+2544   	; 0x28b0 <printf>
	printf("\n\ndata is %i",d_struct->data[d_struct->lastItem]);
    1ec0:	ea 81       	ldd	r30, Y+2	; 0x02
    1ec2:	f0 e0       	ldi	r31, 0x00	; 0
    1ec4:	ee 0f       	add	r30, r30
    1ec6:	ff 1f       	adc	r31, r31
    1ec8:	88 81       	ld	r24, Y
    1eca:	99 81       	ldd	r25, Y+1	; 0x01
    1ecc:	e8 0f       	add	r30, r24
    1ece:	f9 1f       	adc	r31, r25
    1ed0:	81 81       	ldd	r24, Z+1	; 0x01
    1ed2:	8f 93       	push	r24
    1ed4:	80 81       	ld	r24, Z
    1ed6:	8f 93       	push	r24
    1ed8:	88 e5       	ldi	r24, 0x58	; 88
    1eda:	90 e2       	ldi	r25, 0x20	; 32
    1edc:	9f 93       	push	r25
    1ede:	8f 93       	push	r24
    1ee0:	e7 d4       	rcall	.+2510   	; 0x28b0 <printf>
    1ee2:	8d b7       	in	r24, 0x3d	; 61
    1ee4:	9e b7       	in	r25, 0x3e	; 62
    1ee6:	0c 96       	adiw	r24, 0x0c	; 12
    1ee8:	8d bf       	out	0x3d, r24	; 61
    1eea:	9e bf       	out	0x3e, r25	; 62
}
    1eec:	df 91       	pop	r29
    1eee:	cf 91       	pop	r28
    1ef0:	1f 91       	pop	r17
    1ef2:	0f 91       	pop	r16
    1ef4:	08 95       	ret

00001ef6 <getu16>:
//gets item starting at most recent index and going back
uint16_t getu16(p_bstru d_struct,int16_t index)
{
    1ef6:	fc 01       	movw	r30, r24
	if(d_struct==NULL)return 0;
    1ef8:	89 2b       	or	r24, r25
    1efa:	a1 f0       	breq	.+40     	; 0x1f24 <getu16+0x2e>
	index=((int16_t)d_struct->lastItem)-index;
    1efc:	82 81       	ldd	r24, Z+2	; 0x02
    1efe:	90 e0       	ldi	r25, 0x00	; 0
    1f00:	86 1b       	sub	r24, r22
    1f02:	97 0b       	sbc	r25, r23
	//wraps around if index is greater than the position of the last item
	while(index<0)
    1f04:	12 f4       	brpl	.+4      	; 0x1f0a <getu16+0x14>
	{
		index+=BUFSIZE;
    1f06:	0a 96       	adiw	r24, 0x0a	; 10
uint16_t getu16(p_bstru d_struct,int16_t index)
{
	if(d_struct==NULL)return 0;
	index=((int16_t)d_struct->lastItem)-index;
	//wraps around if index is greater than the position of the last item
	while(index<0)
    1f08:	f2 f3       	brmi	.-4      	; 0x1f06 <getu16+0x10>
	{
		index+=BUFSIZE;
	}
	return d_struct->data[index%BUFSIZE];
    1f0a:	6a e0       	ldi	r22, 0x0A	; 10
    1f0c:	70 e0       	ldi	r23, 0x00	; 0
    1f0e:	1c d3       	rcall	.+1592   	; 0x2548 <__divmodhi4>
    1f10:	88 0f       	add	r24, r24
    1f12:	99 1f       	adc	r25, r25
    1f14:	01 90       	ld	r0, Z+
    1f16:	f0 81       	ld	r31, Z
    1f18:	e0 2d       	mov	r30, r0
    1f1a:	e8 0f       	add	r30, r24
    1f1c:	f9 1f       	adc	r31, r25
    1f1e:	80 81       	ld	r24, Z
    1f20:	91 81       	ldd	r25, Z+1	; 0x01
    1f22:	08 95       	ret
	printf("\n\ndata is %i",d_struct->data[d_struct->lastItem]);
}
//gets item starting at most recent index and going back
uint16_t getu16(p_bstru d_struct,int16_t index)
{
	if(d_struct==NULL)return 0;
    1f24:	80 e0       	ldi	r24, 0x00	; 0
    1f26:	90 e0       	ldi	r25, 0x00	; 0
	while(index<0)
	{
		index+=BUFSIZE;
	}
	return d_struct->data[index%BUFSIZE];
}
    1f28:	08 95       	ret

00001f2a <ioport_configure_port_pin>:
#include "ioport_compat.h"

#if defined(IOPORT_XMEGA_COMPAT)
void ioport_configure_port_pin(void *port, pin_mask_t pin_mask,
		port_pin_flags_t flags)
{
    1f2a:	cf 93       	push	r28
    1f2c:	df 93       	push	r29
    1f2e:	fc 01       	movw	r30, r24
	uint8_t pin;

	for (pin = 0; pin < 8; pin++) {
		if (pin_mask & (1 << pin)) {
			*((uint8_t *)port + PORT_PIN0CTRL + pin) = flags >> 8;
    1f30:	20 e0       	ldi	r18, 0x00	; 0
    1f32:	30 e0       	ldi	r19, 0x00	; 0
		port_pin_flags_t flags)
{
	uint8_t pin;

	for (pin = 0; pin < 8; pin++) {
		if (pin_mask & (1 << pin)) {
    1f34:	c6 2f       	mov	r28, r22
    1f36:	d0 e0       	ldi	r29, 0x00	; 0
    1f38:	de 01       	movw	r26, r28
    1f3a:	02 2e       	mov	r0, r18
    1f3c:	02 c0       	rjmp	.+4      	; 0x1f42 <ioport_configure_port_pin+0x18>
    1f3e:	b5 95       	asr	r27
    1f40:	a7 95       	ror	r26
    1f42:	0a 94       	dec	r0
    1f44:	e2 f7       	brpl	.-8      	; 0x1f3e <ioport_configure_port_pin+0x14>
    1f46:	a0 fd       	sbrc	r26, 0
			*((uint8_t *)port + PORT_PIN0CTRL + pin) = flags >> 8;
    1f48:	50 8b       	std	Z+16, r21	; 0x10
    1f4a:	2f 5f       	subi	r18, 0xFF	; 255
    1f4c:	3f 4f       	sbci	r19, 0xFF	; 255
    1f4e:	31 96       	adiw	r30, 0x01	; 1
void ioport_configure_port_pin(void *port, pin_mask_t pin_mask,
		port_pin_flags_t flags)
{
	uint8_t pin;

	for (pin = 0; pin < 8; pin++) {
    1f50:	28 30       	cpi	r18, 0x08	; 8
    1f52:	31 05       	cpc	r19, r1
    1f54:	89 f7       	brne	.-30     	; 0x1f38 <ioport_configure_port_pin+0xe>
		if (pin_mask & (1 << pin)) {
			*((uint8_t *)port + PORT_PIN0CTRL + pin) = flags >> 8;
		}
	}
	/* Select direction and initial pin state */
	if (flags & IOPORT_DIR_OUTPUT) {
    1f56:	40 ff       	sbrs	r20, 0
    1f58:	0a c0       	rjmp	.+20     	; 0x1f6e <ioport_configure_port_pin+0x44>
		if (flags & IOPORT_INIT_HIGH) {
    1f5a:	41 ff       	sbrs	r20, 1
    1f5c:	03 c0       	rjmp	.+6      	; 0x1f64 <ioport_configure_port_pin+0x3a>
			*((uint8_t *)port + PORT_OUTSET) = pin_mask;
    1f5e:	fc 01       	movw	r30, r24
    1f60:	65 83       	std	Z+5, r22	; 0x05
    1f62:	02 c0       	rjmp	.+4      	; 0x1f68 <ioport_configure_port_pin+0x3e>
		} else {
			*((uint8_t *)port + PORT_OUTCLR) = pin_mask;
    1f64:	fc 01       	movw	r30, r24
    1f66:	66 83       	std	Z+6, r22	; 0x06
		}

		*((uint8_t *)port + PORT_DIRSET) = pin_mask;
    1f68:	fc 01       	movw	r30, r24
    1f6a:	61 83       	std	Z+1, r22	; 0x01
    1f6c:	02 c0       	rjmp	.+4      	; 0x1f72 <ioport_configure_port_pin+0x48>
	} else {
		*((uint8_t *)port + PORT_DIRCLR) = pin_mask;
    1f6e:	fc 01       	movw	r30, r24
    1f70:	62 83       	std	Z+2, r22	; 0x02
	}
}
    1f72:	df 91       	pop	r29
    1f74:	cf 91       	pop	r28
    1f76:	08 95       	ret

00001f78 <board_init>:
 * \param flags Bitmask of flags specifying additional configuration
 * parameters.
 */
static inline void ioport_configure_pin(port_pin_t pin, port_pin_flags_t flags)
{
	ioport_configure_port_pin(arch_ioport_pin_to_base(pin),
    1f78:	43 e0       	ldi	r20, 0x03	; 3
    1f7a:	50 e0       	ldi	r21, 0x00	; 0
    1f7c:	68 e0       	ldi	r22, 0x08	; 8
    1f7e:	80 ec       	ldi	r24, 0xC0	; 192
    1f80:	97 e0       	ldi	r25, 0x07	; 7
    1f82:	d3 df       	rcall	.-90     	; 0x1f2a <ioport_configure_port_pin>
    1f84:	40 e0       	ldi	r20, 0x00	; 0
    1f86:	58 e1       	ldi	r21, 0x18	; 24
    1f88:	64 e0       	ldi	r22, 0x04	; 4
    1f8a:	80 ec       	ldi	r24, 0xC0	; 192
    1f8c:	97 e0       	ldi	r25, 0x07	; 7
    1f8e:	cd cf       	rjmp	.-102    	; 0x1f2a <ioport_configure_port_pin>
    1f90:	08 95       	ret

00001f92 <usart_serial_getchar>:
void uart_write(uart_device * device,uint8_t data)
{
	while(!(device->Usart->STATUS&0b00100000));//wait for transmition buffer to clear
	device->Usart->DATA=data;
	while((device->Usart->STATUS&0b01000000));//wait for data to be sent
}
    1f92:	cf 93       	push	r28
    1f94:	df 93       	push	r29
    1f96:	eb 01       	movw	r28, r22
    1f98:	a2 dc       	rcall	.-1724   	; 0x18de <usart_getchar>
    1f9a:	88 83       	st	Y, r24
    1f9c:	df 91       	pop	r29
    1f9e:	cf 91       	pop	r28
    1fa0:	08 95       	ret

00001fa2 <usart_serial_putchar>:
    1fa2:	95 cc       	rjmp	.-1750   	; 0x18ce <usart_putchar>
    1fa4:	08 95       	ret

00001fa6 <uart_init>:
    1fa6:	ef 92       	push	r14
    1fa8:	ff 92       	push	r15
    1faa:	0f 93       	push	r16
    1fac:	1f 93       	push	r17
    1fae:	cf 93       	push	r28
    1fb0:	df 93       	push	r29
    1fb2:	cd b7       	in	r28, 0x3d	; 61
    1fb4:	de b7       	in	r29, 0x3e	; 62
    1fb6:	27 97       	sbiw	r28, 0x07	; 7
    1fb8:	cd bf       	out	0x3d, r28	; 61
    1fba:	de bf       	out	0x3e, r29	; 62
    1fbc:	7c 01       	movw	r14, r24
    1fbe:	fc 01       	movw	r30, r24
    1fc0:	86 81       	ldd	r24, Z+6	; 0x06
    1fc2:	97 81       	ldd	r25, Z+7	; 0x07
    1fc4:	a0 85       	ldd	r26, Z+8	; 0x08
    1fc6:	b1 85       	ldd	r27, Z+9	; 0x09
    1fc8:	80 93 0d 20 	sts	0x200D, r24	; 0x80200d <usart_options.6313>
    1fcc:	90 93 0e 20 	sts	0x200E, r25	; 0x80200e <usart_options.6313+0x1>
    1fd0:	a0 93 0f 20 	sts	0x200F, r26	; 0x80200f <usart_options.6313+0x2>
    1fd4:	b0 93 10 20 	sts	0x2010, r27	; 0x802010 <usart_options.6313+0x3>
    1fd8:	01 90       	ld	r0, Z+
    1fda:	f0 81       	ld	r31, Z
    1fdc:	e0 2d       	mov	r30, r0
    1fde:	90 81       	ld	r25, Z
    1fe0:	d7 01       	movw	r26, r14
    1fe2:	15 96       	adiw	r26, 0x05	; 5
    1fe4:	8c 91       	ld	r24, X
    1fe6:	15 97       	sbiw	r26, 0x05	; 5
    1fe8:	89 2b       	or	r24, r25
    1fea:	80 83       	st	Z, r24
    1fec:	ed 91       	ld	r30, X+
    1fee:	fc 91       	ld	r31, X
    1ff0:	11 97       	sbiw	r26, 0x01	; 1
    1ff2:	94 81       	ldd	r25, Z+4	; 0x04
    1ff4:	15 96       	adiw	r26, 0x05	; 5
    1ff6:	8c 91       	ld	r24, X
    1ff8:	15 97       	sbiw	r26, 0x05	; 5
    1ffa:	89 2b       	or	r24, r25
    1ffc:	84 83       	std	Z+4, r24	; 0x04
    1ffe:	ed 91       	ld	r30, X+
    2000:	fc 91       	ld	r31, X
    2002:	11 97       	sbiw	r26, 0x01	; 1
    2004:	90 81       	ld	r25, Z
    2006:	14 96       	adiw	r26, 0x04	; 4
    2008:	8c 91       	ld	r24, X
    200a:	14 97       	sbiw	r26, 0x04	; 4
    200c:	80 95       	com	r24
    200e:	89 23       	and	r24, r25
    2010:	80 83       	st	Z, r24
    2012:	12 96       	adiw	r26, 0x02	; 2
    2014:	0d 91       	ld	r16, X+
    2016:	1c 91       	ld	r17, X
    2018:	13 97       	sbiw	r26, 0x03	; 3
    201a:	01 15       	cp	r16, r1
    201c:	11 05       	cpc	r17, r1
    201e:	09 f4       	brne	.+2      	; 0x2022 <uart_init+0x7c>
    2020:	c5 c1       	rjmp	.+906    	; 0x23ac <uart_init+0x406>
    2022:	00 3c       	cpi	r16, 0xC0	; 192
    2024:	11 05       	cpc	r17, r1
    2026:	29 f4       	brne	.+10     	; 0x2032 <uart_init+0x8c>
    2028:	60 e1       	ldi	r22, 0x10	; 16
    202a:	80 e0       	ldi	r24, 0x00	; 0
    202c:	0e 94 5a 01 	call	0x2b4	; 0x2b4 <sysclk_enable_module>
    2030:	54 c1       	rjmp	.+680    	; 0x22da <uart_init+0x334>
    2032:	00 34       	cpi	r16, 0x40	; 64
    2034:	b4 e0       	ldi	r27, 0x04	; 4
    2036:	1b 07       	cpc	r17, r27
    2038:	29 f4       	brne	.+10     	; 0x2044 <uart_init+0x9e>
    203a:	68 e0       	ldi	r22, 0x08	; 8
    203c:	80 e0       	ldi	r24, 0x00	; 0
    203e:	0e 94 5a 01 	call	0x2b4	; 0x2b4 <sysclk_enable_module>
    2042:	4b c1       	rjmp	.+662    	; 0x22da <uart_init+0x334>
    2044:	01 15       	cp	r16, r1
    2046:	e4 e0       	ldi	r30, 0x04	; 4
    2048:	1e 07       	cpc	r17, r30
    204a:	29 f4       	brne	.+10     	; 0x2056 <uart_init+0xb0>
    204c:	64 e0       	ldi	r22, 0x04	; 4
    204e:	80 e0       	ldi	r24, 0x00	; 0
    2050:	0e 94 5a 01 	call	0x2b4	; 0x2b4 <sysclk_enable_module>
    2054:	42 c1       	rjmp	.+644    	; 0x22da <uart_init+0x334>
    2056:	00 38       	cpi	r16, 0x80	; 128
    2058:	f1 e0       	ldi	r31, 0x01	; 1
    205a:	1f 07       	cpc	r17, r31
    205c:	29 f4       	brne	.+10     	; 0x2068 <uart_init+0xc2>
    205e:	62 e0       	ldi	r22, 0x02	; 2
    2060:	80 e0       	ldi	r24, 0x00	; 0
    2062:	0e 94 5a 01 	call	0x2b4	; 0x2b4 <sysclk_enable_module>
    2066:	39 c1       	rjmp	.+626    	; 0x22da <uart_init+0x334>
    2068:	01 15       	cp	r16, r1
    206a:	81 e0       	ldi	r24, 0x01	; 1
    206c:	18 07       	cpc	r17, r24
    206e:	29 f4       	brne	.+10     	; 0x207a <uart_init+0xd4>
    2070:	61 e0       	ldi	r22, 0x01	; 1
    2072:	80 e0       	ldi	r24, 0x00	; 0
    2074:	0e 94 5a 01 	call	0x2b4	; 0x2b4 <sysclk_enable_module>
    2078:	30 c1       	rjmp	.+608    	; 0x22da <uart_init+0x334>
    207a:	00 38       	cpi	r16, 0x80	; 128
    207c:	a3 e0       	ldi	r26, 0x03	; 3
    207e:	1a 07       	cpc	r17, r26
    2080:	29 f4       	brne	.+10     	; 0x208c <uart_init+0xe6>
    2082:	61 e0       	ldi	r22, 0x01	; 1
    2084:	81 e0       	ldi	r24, 0x01	; 1
    2086:	0e 94 5a 01 	call	0x2b4	; 0x2b4 <sysclk_enable_module>
    208a:	27 c1       	rjmp	.+590    	; 0x22da <uart_init+0x334>
    208c:	00 39       	cpi	r16, 0x90	; 144
    208e:	b3 e0       	ldi	r27, 0x03	; 3
    2090:	1b 07       	cpc	r17, r27
    2092:	29 f4       	brne	.+10     	; 0x209e <uart_init+0xf8>
    2094:	61 e0       	ldi	r22, 0x01	; 1
    2096:	82 e0       	ldi	r24, 0x02	; 2
    2098:	0e 94 5a 01 	call	0x2b4	; 0x2b4 <sysclk_enable_module>
    209c:	1e c1       	rjmp	.+572    	; 0x22da <uart_init+0x334>
    209e:	01 15       	cp	r16, r1
    20a0:	e2 e0       	ldi	r30, 0x02	; 2
    20a2:	1e 07       	cpc	r17, r30
    20a4:	29 f4       	brne	.+10     	; 0x20b0 <uart_init+0x10a>
    20a6:	62 e0       	ldi	r22, 0x02	; 2
    20a8:	81 e0       	ldi	r24, 0x01	; 1
    20aa:	0e 94 5a 01 	call	0x2b4	; 0x2b4 <sysclk_enable_module>
    20ae:	15 c1       	rjmp	.+554    	; 0x22da <uart_init+0x334>
    20b0:	00 34       	cpi	r16, 0x40	; 64
    20b2:	f2 e0       	ldi	r31, 0x02	; 2
    20b4:	1f 07       	cpc	r17, r31
    20b6:	29 f4       	brne	.+10     	; 0x20c2 <uart_init+0x11c>
    20b8:	62 e0       	ldi	r22, 0x02	; 2
    20ba:	82 e0       	ldi	r24, 0x02	; 2
    20bc:	0e 94 5a 01 	call	0x2b4	; 0x2b4 <sysclk_enable_module>
    20c0:	0c c1       	rjmp	.+536    	; 0x22da <uart_init+0x334>
    20c2:	01 15       	cp	r16, r1
    20c4:	83 e0       	ldi	r24, 0x03	; 3
    20c6:	18 07       	cpc	r17, r24
    20c8:	29 f4       	brne	.+10     	; 0x20d4 <uart_init+0x12e>
    20ca:	64 e0       	ldi	r22, 0x04	; 4
    20cc:	81 e0       	ldi	r24, 0x01	; 1
    20ce:	0e 94 5a 01 	call	0x2b4	; 0x2b4 <sysclk_enable_module>
    20d2:	03 c1       	rjmp	.+518    	; 0x22da <uart_init+0x334>
    20d4:	00 32       	cpi	r16, 0x20	; 32
    20d6:	a3 e0       	ldi	r26, 0x03	; 3
    20d8:	1a 07       	cpc	r17, r26
    20da:	29 f4       	brne	.+10     	; 0x20e6 <uart_init+0x140>
    20dc:	64 e0       	ldi	r22, 0x04	; 4
    20de:	82 e0       	ldi	r24, 0x02	; 2
    20e0:	0e 94 5a 01 	call	0x2b4	; 0x2b4 <sysclk_enable_module>
    20e4:	fa c0       	rjmp	.+500    	; 0x22da <uart_init+0x334>
    20e6:	01 15       	cp	r16, r1
    20e8:	b8 e0       	ldi	r27, 0x08	; 8
    20ea:	1b 07       	cpc	r17, r27
    20ec:	29 f4       	brne	.+10     	; 0x20f8 <uart_init+0x152>
    20ee:	61 e0       	ldi	r22, 0x01	; 1
    20f0:	83 e0       	ldi	r24, 0x03	; 3
    20f2:	0e 94 5a 01 	call	0x2b4	; 0x2b4 <sysclk_enable_module>
    20f6:	f1 c0       	rjmp	.+482    	; 0x22da <uart_init+0x334>
    20f8:	01 15       	cp	r16, r1
    20fa:	e9 e0       	ldi	r30, 0x09	; 9
    20fc:	1e 07       	cpc	r17, r30
    20fe:	29 f4       	brne	.+10     	; 0x210a <uart_init+0x164>
    2100:	61 e0       	ldi	r22, 0x01	; 1
    2102:	84 e0       	ldi	r24, 0x04	; 4
    2104:	0e 94 5a 01 	call	0x2b4	; 0x2b4 <sysclk_enable_module>
    2108:	e8 c0       	rjmp	.+464    	; 0x22da <uart_init+0x334>
    210a:	01 15       	cp	r16, r1
    210c:	fa e0       	ldi	r31, 0x0A	; 10
    210e:	1f 07       	cpc	r17, r31
    2110:	29 f4       	brne	.+10     	; 0x211c <uart_init+0x176>
    2112:	61 e0       	ldi	r22, 0x01	; 1
    2114:	85 e0       	ldi	r24, 0x05	; 5
    2116:	0e 94 5a 01 	call	0x2b4	; 0x2b4 <sysclk_enable_module>
    211a:	df c0       	rjmp	.+446    	; 0x22da <uart_init+0x334>
    211c:	01 15       	cp	r16, r1
    211e:	8b e0       	ldi	r24, 0x0B	; 11
    2120:	18 07       	cpc	r17, r24
    2122:	29 f4       	brne	.+10     	; 0x212e <uart_init+0x188>
    2124:	61 e0       	ldi	r22, 0x01	; 1
    2126:	86 e0       	ldi	r24, 0x06	; 6
    2128:	0e 94 5a 01 	call	0x2b4	; 0x2b4 <sysclk_enable_module>
    212c:	d6 c0       	rjmp	.+428    	; 0x22da <uart_init+0x334>
    212e:	00 34       	cpi	r16, 0x40	; 64
    2130:	a8 e0       	ldi	r26, 0x08	; 8
    2132:	1a 07       	cpc	r17, r26
    2134:	29 f4       	brne	.+10     	; 0x2140 <uart_init+0x19a>
    2136:	62 e0       	ldi	r22, 0x02	; 2
    2138:	83 e0       	ldi	r24, 0x03	; 3
    213a:	0e 94 5a 01 	call	0x2b4	; 0x2b4 <sysclk_enable_module>
    213e:	cd c0       	rjmp	.+410    	; 0x22da <uart_init+0x334>
    2140:	00 34       	cpi	r16, 0x40	; 64
    2142:	b9 e0       	ldi	r27, 0x09	; 9
    2144:	1b 07       	cpc	r17, r27
    2146:	29 f4       	brne	.+10     	; 0x2152 <uart_init+0x1ac>
    2148:	62 e0       	ldi	r22, 0x02	; 2
    214a:	84 e0       	ldi	r24, 0x04	; 4
    214c:	0e 94 5a 01 	call	0x2b4	; 0x2b4 <sysclk_enable_module>
    2150:	c4 c0       	rjmp	.+392    	; 0x22da <uart_init+0x334>
    2152:	00 34       	cpi	r16, 0x40	; 64
    2154:	ea e0       	ldi	r30, 0x0A	; 10
    2156:	1e 07       	cpc	r17, r30
    2158:	29 f4       	brne	.+10     	; 0x2164 <uart_init+0x1be>
    215a:	62 e0       	ldi	r22, 0x02	; 2
    215c:	85 e0       	ldi	r24, 0x05	; 5
    215e:	0e 94 5a 01 	call	0x2b4	; 0x2b4 <sysclk_enable_module>
    2162:	bb c0       	rjmp	.+374    	; 0x22da <uart_init+0x334>
    2164:	00 34       	cpi	r16, 0x40	; 64
    2166:	fb e0       	ldi	r31, 0x0B	; 11
    2168:	1f 07       	cpc	r17, r31
    216a:	29 f4       	brne	.+10     	; 0x2176 <uart_init+0x1d0>
    216c:	62 e0       	ldi	r22, 0x02	; 2
    216e:	86 e0       	ldi	r24, 0x06	; 6
    2170:	0e 94 5a 01 	call	0x2b4	; 0x2b4 <sysclk_enable_module>
    2174:	b2 c0       	rjmp	.+356    	; 0x22da <uart_init+0x334>
    2176:	00 39       	cpi	r16, 0x90	; 144
    2178:	88 e0       	ldi	r24, 0x08	; 8
    217a:	18 07       	cpc	r17, r24
    217c:	29 f4       	brne	.+10     	; 0x2188 <uart_init+0x1e2>
    217e:	64 e0       	ldi	r22, 0x04	; 4
    2180:	83 e0       	ldi	r24, 0x03	; 3
    2182:	0e 94 5a 01 	call	0x2b4	; 0x2b4 <sysclk_enable_module>
    2186:	a9 c0       	rjmp	.+338    	; 0x22da <uart_init+0x334>
    2188:	00 39       	cpi	r16, 0x90	; 144
    218a:	a9 e0       	ldi	r26, 0x09	; 9
    218c:	1a 07       	cpc	r17, r26
    218e:	29 f4       	brne	.+10     	; 0x219a <uart_init+0x1f4>
    2190:	64 e0       	ldi	r22, 0x04	; 4
    2192:	84 e0       	ldi	r24, 0x04	; 4
    2194:	0e 94 5a 01 	call	0x2b4	; 0x2b4 <sysclk_enable_module>
    2198:	a0 c0       	rjmp	.+320    	; 0x22da <uart_init+0x334>
    219a:	00 39       	cpi	r16, 0x90	; 144
    219c:	ba e0       	ldi	r27, 0x0A	; 10
    219e:	1b 07       	cpc	r17, r27
    21a0:	29 f4       	brne	.+10     	; 0x21ac <uart_init+0x206>
    21a2:	64 e0       	ldi	r22, 0x04	; 4
    21a4:	85 e0       	ldi	r24, 0x05	; 5
    21a6:	0e 94 5a 01 	call	0x2b4	; 0x2b4 <sysclk_enable_module>
    21aa:	97 c0       	rjmp	.+302    	; 0x22da <uart_init+0x334>
    21ac:	00 39       	cpi	r16, 0x90	; 144
    21ae:	eb e0       	ldi	r30, 0x0B	; 11
    21b0:	1e 07       	cpc	r17, r30
    21b2:	29 f4       	brne	.+10     	; 0x21be <uart_init+0x218>
    21b4:	64 e0       	ldi	r22, 0x04	; 4
    21b6:	86 e0       	ldi	r24, 0x06	; 6
    21b8:	0e 94 5a 01 	call	0x2b4	; 0x2b4 <sysclk_enable_module>
    21bc:	8e c0       	rjmp	.+284    	; 0x22da <uart_init+0x334>
    21be:	00 3c       	cpi	r16, 0xC0	; 192
    21c0:	f8 e0       	ldi	r31, 0x08	; 8
    21c2:	1f 07       	cpc	r17, r31
    21c4:	29 f4       	brne	.+10     	; 0x21d0 <uart_init+0x22a>
    21c6:	68 e0       	ldi	r22, 0x08	; 8
    21c8:	83 e0       	ldi	r24, 0x03	; 3
    21ca:	0e 94 5a 01 	call	0x2b4	; 0x2b4 <sysclk_enable_module>
    21ce:	85 c0       	rjmp	.+266    	; 0x22da <uart_init+0x334>
    21d0:	00 3c       	cpi	r16, 0xC0	; 192
    21d2:	89 e0       	ldi	r24, 0x09	; 9
    21d4:	18 07       	cpc	r17, r24
    21d6:	29 f4       	brne	.+10     	; 0x21e2 <uart_init+0x23c>
    21d8:	68 e0       	ldi	r22, 0x08	; 8
    21da:	84 e0       	ldi	r24, 0x04	; 4
    21dc:	0e 94 5a 01 	call	0x2b4	; 0x2b4 <sysclk_enable_module>
    21e0:	7c c0       	rjmp	.+248    	; 0x22da <uart_init+0x334>
    21e2:	00 3c       	cpi	r16, 0xC0	; 192
    21e4:	aa e0       	ldi	r26, 0x0A	; 10
    21e6:	1a 07       	cpc	r17, r26
    21e8:	29 f4       	brne	.+10     	; 0x21f4 <uart_init+0x24e>
    21ea:	68 e0       	ldi	r22, 0x08	; 8
    21ec:	85 e0       	ldi	r24, 0x05	; 5
    21ee:	0e 94 5a 01 	call	0x2b4	; 0x2b4 <sysclk_enable_module>
    21f2:	73 c0       	rjmp	.+230    	; 0x22da <uart_init+0x334>
    21f4:	00 3c       	cpi	r16, 0xC0	; 192
    21f6:	bb e0       	ldi	r27, 0x0B	; 11
    21f8:	1b 07       	cpc	r17, r27
    21fa:	29 f4       	brne	.+10     	; 0x2206 <uart_init+0x260>
    21fc:	68 e0       	ldi	r22, 0x08	; 8
    21fe:	86 e0       	ldi	r24, 0x06	; 6
    2200:	0e 94 5a 01 	call	0x2b4	; 0x2b4 <sysclk_enable_module>
    2204:	6a c0       	rjmp	.+212    	; 0x22da <uart_init+0x334>
    2206:	00 3a       	cpi	r16, 0xA0	; 160
    2208:	e8 e0       	ldi	r30, 0x08	; 8
    220a:	1e 07       	cpc	r17, r30
    220c:	29 f4       	brne	.+10     	; 0x2218 <uart_init+0x272>
    220e:	60 e1       	ldi	r22, 0x10	; 16
    2210:	83 e0       	ldi	r24, 0x03	; 3
    2212:	0e 94 5a 01 	call	0x2b4	; 0x2b4 <sysclk_enable_module>
    2216:	61 c0       	rjmp	.+194    	; 0x22da <uart_init+0x334>
    2218:	00 3a       	cpi	r16, 0xA0	; 160
    221a:	f9 e0       	ldi	r31, 0x09	; 9
    221c:	1f 07       	cpc	r17, r31
    221e:	29 f4       	brne	.+10     	; 0x222a <uart_init+0x284>
    2220:	60 e1       	ldi	r22, 0x10	; 16
    2222:	84 e0       	ldi	r24, 0x04	; 4
    2224:	0e 94 5a 01 	call	0x2b4	; 0x2b4 <sysclk_enable_module>
    2228:	58 c0       	rjmp	.+176    	; 0x22da <uart_init+0x334>
    222a:	00 3a       	cpi	r16, 0xA0	; 160
    222c:	8a e0       	ldi	r24, 0x0A	; 10
    222e:	18 07       	cpc	r17, r24
    2230:	29 f4       	brne	.+10     	; 0x223c <uart_init+0x296>
    2232:	60 e1       	ldi	r22, 0x10	; 16
    2234:	85 e0       	ldi	r24, 0x05	; 5
    2236:	0e 94 5a 01 	call	0x2b4	; 0x2b4 <sysclk_enable_module>
    223a:	4f c0       	rjmp	.+158    	; 0x22da <uart_init+0x334>
    223c:	00 3a       	cpi	r16, 0xA0	; 160
    223e:	ab e0       	ldi	r26, 0x0B	; 11
    2240:	1a 07       	cpc	r17, r26
    2242:	29 f4       	brne	.+10     	; 0x224e <uart_init+0x2a8>
    2244:	60 e1       	ldi	r22, 0x10	; 16
    2246:	86 e0       	ldi	r24, 0x06	; 6
    2248:	0e 94 5a 01 	call	0x2b4	; 0x2b4 <sysclk_enable_module>
    224c:	46 c0       	rjmp	.+140    	; 0x22da <uart_init+0x334>
    224e:	00 3b       	cpi	r16, 0xB0	; 176
    2250:	b8 e0       	ldi	r27, 0x08	; 8
    2252:	1b 07       	cpc	r17, r27
    2254:	29 f4       	brne	.+10     	; 0x2260 <uart_init+0x2ba>
    2256:	60 e2       	ldi	r22, 0x20	; 32
    2258:	83 e0       	ldi	r24, 0x03	; 3
    225a:	0e 94 5a 01 	call	0x2b4	; 0x2b4 <sysclk_enable_module>
    225e:	3d c0       	rjmp	.+122    	; 0x22da <uart_init+0x334>
    2260:	00 3b       	cpi	r16, 0xB0	; 176
    2262:	e9 e0       	ldi	r30, 0x09	; 9
    2264:	1e 07       	cpc	r17, r30
    2266:	29 f4       	brne	.+10     	; 0x2272 <uart_init+0x2cc>
    2268:	60 e2       	ldi	r22, 0x20	; 32
    226a:	84 e0       	ldi	r24, 0x04	; 4
    226c:	0e 94 5a 01 	call	0x2b4	; 0x2b4 <sysclk_enable_module>
    2270:	34 c0       	rjmp	.+104    	; 0x22da <uart_init+0x334>
    2272:	00 3b       	cpi	r16, 0xB0	; 176
    2274:	fa e0       	ldi	r31, 0x0A	; 10
    2276:	1f 07       	cpc	r17, r31
    2278:	29 f4       	brne	.+10     	; 0x2284 <uart_init+0x2de>
    227a:	60 e2       	ldi	r22, 0x20	; 32
    227c:	85 e0       	ldi	r24, 0x05	; 5
    227e:	0e 94 5a 01 	call	0x2b4	; 0x2b4 <sysclk_enable_module>
    2282:	2b c0       	rjmp	.+86     	; 0x22da <uart_init+0x334>
    2284:	00 3b       	cpi	r16, 0xB0	; 176
    2286:	8b e0       	ldi	r24, 0x0B	; 11
    2288:	18 07       	cpc	r17, r24
    228a:	29 f4       	brne	.+10     	; 0x2296 <uart_init+0x2f0>
    228c:	60 e2       	ldi	r22, 0x20	; 32
    228e:	86 e0       	ldi	r24, 0x06	; 6
    2290:	0e 94 5a 01 	call	0x2b4	; 0x2b4 <sysclk_enable_module>
    2294:	22 c0       	rjmp	.+68     	; 0x22da <uart_init+0x334>
    2296:	00 38       	cpi	r16, 0x80	; 128
    2298:	a4 e0       	ldi	r26, 0x04	; 4
    229a:	1a 07       	cpc	r17, r26
    229c:	29 f4       	brne	.+10     	; 0x22a8 <uart_init+0x302>
    229e:	60 e4       	ldi	r22, 0x40	; 64
    22a0:	83 e0       	ldi	r24, 0x03	; 3
    22a2:	0e 94 5a 01 	call	0x2b4	; 0x2b4 <sysclk_enable_module>
    22a6:	19 c0       	rjmp	.+50     	; 0x22da <uart_init+0x334>
    22a8:	00 39       	cpi	r16, 0x90	; 144
    22aa:	b4 e0       	ldi	r27, 0x04	; 4
    22ac:	1b 07       	cpc	r17, r27
    22ae:	29 f4       	brne	.+10     	; 0x22ba <uart_init+0x314>
    22b0:	60 e4       	ldi	r22, 0x40	; 64
    22b2:	84 e0       	ldi	r24, 0x04	; 4
    22b4:	0e 94 5a 01 	call	0x2b4	; 0x2b4 <sysclk_enable_module>
    22b8:	10 c0       	rjmp	.+32     	; 0x22da <uart_init+0x334>
    22ba:	00 3a       	cpi	r16, 0xA0	; 160
    22bc:	e4 e0       	ldi	r30, 0x04	; 4
    22be:	1e 07       	cpc	r17, r30
    22c0:	29 f4       	brne	.+10     	; 0x22cc <uart_init+0x326>
    22c2:	60 e4       	ldi	r22, 0x40	; 64
    22c4:	85 e0       	ldi	r24, 0x05	; 5
    22c6:	0e 94 5a 01 	call	0x2b4	; 0x2b4 <sysclk_enable_module>
    22ca:	07 c0       	rjmp	.+14     	; 0x22da <uart_init+0x334>
    22cc:	00 3b       	cpi	r16, 0xB0	; 176
    22ce:	14 40       	sbci	r17, 0x04	; 4
    22d0:	21 f4       	brne	.+8      	; 0x22da <uart_init+0x334>
    22d2:	60 e4       	ldi	r22, 0x40	; 64
    22d4:	86 e0       	ldi	r24, 0x06	; 6
    22d6:	0e 94 5a 01 	call	0x2b4	; 0x2b4 <sysclk_enable_module>
    22da:	d7 01       	movw	r26, r14
    22dc:	12 96       	adiw	r26, 0x02	; 2
    22de:	0d 91       	ld	r16, X+
    22e0:	1c 91       	ld	r17, X
    22e2:	13 97       	sbiw	r26, 0x03	; 3
    22e4:	ed e0       	ldi	r30, 0x0D	; 13
    22e6:	f0 e2       	ldi	r31, 0x20	; 32
    22e8:	84 81       	ldd	r24, Z+4	; 0x04
    22ea:	8d 83       	std	Y+5, r24	; 0x05
    22ec:	85 81       	ldd	r24, Z+5	; 0x05
    22ee:	8e 83       	std	Y+6, r24	; 0x06
    22f0:	86 81       	ldd	r24, Z+6	; 0x06
    22f2:	8f 83       	std	Y+7, r24	; 0x07
    22f4:	80 81       	ld	r24, Z
    22f6:	91 81       	ldd	r25, Z+1	; 0x01
    22f8:	a2 81       	ldd	r26, Z+2	; 0x02
    22fa:	b3 81       	ldd	r27, Z+3	; 0x03
    22fc:	89 83       	std	Y+1, r24	; 0x01
    22fe:	9a 83       	std	Y+2, r25	; 0x02
    2300:	ab 83       	std	Y+3, r26	; 0x03
    2302:	bc 83       	std	Y+4, r27	; 0x04
    2304:	78 01       	movw	r14, r16
    2306:	00 3a       	cpi	r16, 0xA0	; 160
    2308:	b8 e0       	ldi	r27, 0x08	; 8
    230a:	1b 07       	cpc	r17, r27
    230c:	29 f4       	brne	.+10     	; 0x2318 <uart_init+0x372>
    230e:	60 e1       	ldi	r22, 0x10	; 16
    2310:	83 e0       	ldi	r24, 0x03	; 3
    2312:	0e 94 5a 01 	call	0x2b4	; 0x2b4 <sysclk_enable_module>
    2316:	13 c0       	rjmp	.+38     	; 0x233e <uart_init+0x398>
    2318:	00 3b       	cpi	r16, 0xB0	; 176
    231a:	e8 e0       	ldi	r30, 0x08	; 8
    231c:	1e 07       	cpc	r17, r30
    231e:	29 f4       	brne	.+10     	; 0x232a <uart_init+0x384>
    2320:	60 e2       	ldi	r22, 0x20	; 32
    2322:	83 e0       	ldi	r24, 0x03	; 3
    2324:	0e 94 5a 01 	call	0x2b4	; 0x2b4 <sysclk_enable_module>
    2328:	14 c0       	rjmp	.+40     	; 0x2352 <uart_init+0x3ac>
    232a:	f0 ea       	ldi	r31, 0xA0	; 160
    232c:	ef 16       	cp	r14, r31
    232e:	f9 e0       	ldi	r31, 0x09	; 9
    2330:	ff 06       	cpc	r15, r31
    2332:	29 f4       	brne	.+10     	; 0x233e <uart_init+0x398>
    2334:	60 e1       	ldi	r22, 0x10	; 16
    2336:	84 e0       	ldi	r24, 0x04	; 4
    2338:	0e 94 5a 01 	call	0x2b4	; 0x2b4 <sysclk_enable_module>
    233c:	14 c0       	rjmp	.+40     	; 0x2366 <uart_init+0x3c0>
    233e:	80 eb       	ldi	r24, 0xB0	; 176
    2340:	e8 16       	cp	r14, r24
    2342:	89 e0       	ldi	r24, 0x09	; 9
    2344:	f8 06       	cpc	r15, r24
    2346:	29 f4       	brne	.+10     	; 0x2352 <uart_init+0x3ac>
    2348:	60 e2       	ldi	r22, 0x20	; 32
    234a:	84 e0       	ldi	r24, 0x04	; 4
    234c:	0e 94 5a 01 	call	0x2b4	; 0x2b4 <sysclk_enable_module>
    2350:	14 c0       	rjmp	.+40     	; 0x237a <uart_init+0x3d4>
    2352:	a0 ea       	ldi	r26, 0xA0	; 160
    2354:	ea 16       	cp	r14, r26
    2356:	aa e0       	ldi	r26, 0x0A	; 10
    2358:	fa 06       	cpc	r15, r26
    235a:	29 f4       	brne	.+10     	; 0x2366 <uart_init+0x3c0>
    235c:	60 e1       	ldi	r22, 0x10	; 16
    235e:	85 e0       	ldi	r24, 0x05	; 5
    2360:	0e 94 5a 01 	call	0x2b4	; 0x2b4 <sysclk_enable_module>
    2364:	14 c0       	rjmp	.+40     	; 0x238e <uart_init+0x3e8>
    2366:	b0 eb       	ldi	r27, 0xB0	; 176
    2368:	eb 16       	cp	r14, r27
    236a:	ba e0       	ldi	r27, 0x0A	; 10
    236c:	fb 06       	cpc	r15, r27
    236e:	29 f4       	brne	.+10     	; 0x237a <uart_init+0x3d4>
    2370:	60 e2       	ldi	r22, 0x20	; 32
    2372:	85 e0       	ldi	r24, 0x05	; 5
    2374:	0e 94 5a 01 	call	0x2b4	; 0x2b4 <sysclk_enable_module>
    2378:	13 c0       	rjmp	.+38     	; 0x23a0 <uart_init+0x3fa>
    237a:	e0 ea       	ldi	r30, 0xA0	; 160
    237c:	ee 16       	cp	r14, r30
    237e:	eb e0       	ldi	r30, 0x0B	; 11
    2380:	fe 06       	cpc	r15, r30
    2382:	29 f4       	brne	.+10     	; 0x238e <uart_init+0x3e8>
    2384:	60 e1       	ldi	r22, 0x10	; 16
    2386:	86 e0       	ldi	r24, 0x06	; 6
    2388:	0e 94 5a 01 	call	0x2b4	; 0x2b4 <sysclk_enable_module>
    238c:	09 c0       	rjmp	.+18     	; 0x23a0 <uart_init+0x3fa>
    238e:	f0 eb       	ldi	r31, 0xB0	; 176
    2390:	ef 16       	cp	r14, r31
    2392:	fb e0       	ldi	r31, 0x0B	; 11
    2394:	ff 06       	cpc	r15, r31
    2396:	21 f4       	brne	.+8      	; 0x23a0 <uart_init+0x3fa>
    2398:	60 e2       	ldi	r22, 0x20	; 32
    239a:	86 e0       	ldi	r24, 0x06	; 6
    239c:	0e 94 5a 01 	call	0x2b4	; 0x2b4 <sysclk_enable_module>
    23a0:	be 01       	movw	r22, r28
    23a2:	6f 5f       	subi	r22, 0xFF	; 255
    23a4:	7f 4f       	sbci	r23, 0xFF	; 255
    23a6:	c8 01       	movw	r24, r16
    23a8:	af db       	rcall	.-2210   	; 0x1b08 <usart_init_rs232>
    23aa:	13 c0       	rjmp	.+38     	; 0x23d2 <uart_init+0x42c>
    23ac:	ed e0       	ldi	r30, 0x0D	; 13
    23ae:	f0 e2       	ldi	r31, 0x20	; 32
    23b0:	84 81       	ldd	r24, Z+4	; 0x04
    23b2:	8d 83       	std	Y+5, r24	; 0x05
    23b4:	85 81       	ldd	r24, Z+5	; 0x05
    23b6:	8e 83       	std	Y+6, r24	; 0x06
    23b8:	86 81       	ldd	r24, Z+6	; 0x06
    23ba:	8f 83       	std	Y+7, r24	; 0x07
    23bc:	80 81       	ld	r24, Z
    23be:	91 81       	ldd	r25, Z+1	; 0x01
    23c0:	a2 81       	ldd	r26, Z+2	; 0x02
    23c2:	b3 81       	ldd	r27, Z+3	; 0x03
    23c4:	89 83       	std	Y+1, r24	; 0x01
    23c6:	9a 83       	std	Y+2, r25	; 0x02
    23c8:	ab 83       	std	Y+3, r26	; 0x03
    23ca:	bc 83       	std	Y+4, r27	; 0x04
    23cc:	e1 2c       	mov	r14, r1
    23ce:	f1 2c       	mov	r15, r1
    23d0:	ac cf       	rjmp	.-168    	; 0x232a <uart_init+0x384>
    23d2:	27 96       	adiw	r28, 0x07	; 7
    23d4:	cd bf       	out	0x3d, r28	; 61
    23d6:	de bf       	out	0x3e, r29	; 62
    23d8:	df 91       	pop	r29
    23da:	cf 91       	pop	r28
    23dc:	1f 91       	pop	r17
    23de:	0f 91       	pop	r16
    23e0:	ff 90       	pop	r15
    23e2:	ef 90       	pop	r14
    23e4:	08 95       	ret

000023e6 <openlog_init>:
    23e6:	fc 01       	movw	r30, r24
    23e8:	80 e0       	ldi	r24, 0x00	; 0
    23ea:	92 ec       	ldi	r25, 0xC2	; 194
    23ec:	a1 e0       	ldi	r26, 0x01	; 1
    23ee:	b0 e0       	ldi	r27, 0x00	; 0
    23f0:	86 83       	std	Z+6, r24	; 0x06
    23f2:	97 83       	std	Z+7, r25	; 0x07
    23f4:	a0 87       	std	Z+8, r26	; 0x08
    23f6:	b1 87       	std	Z+9, r27	; 0x09
    23f8:	80 e4       	ldi	r24, 0x40	; 64
    23fa:	96 e0       	ldi	r25, 0x06	; 6
    23fc:	80 83       	st	Z, r24
    23fe:	91 83       	std	Z+1, r25	; 0x01
    2400:	80 ea       	ldi	r24, 0xA0	; 160
    2402:	98 e0       	ldi	r25, 0x08	; 8
    2404:	82 83       	std	Z+2, r24	; 0x02
    2406:	93 83       	std	Z+3, r25	; 0x03
    2408:	88 e0       	ldi	r24, 0x08	; 8
    240a:	85 83       	std	Z+5, r24	; 0x05
    240c:	84 e0       	ldi	r24, 0x04	; 4
    240e:	84 83       	std	Z+4, r24	; 0x04
    2410:	08 95       	ret

00002412 <uart_terminal_init>:

void uart_terminal_init()
{
    2412:	cf 93       	push	r28
    2414:	df 93       	push	r29
    2416:	cd b7       	in	r28, 0x3d	; 61
    2418:	de b7       	in	r29, 0x3e	; 62
    241a:	27 97       	sbiw	r28, 0x07	; 7
    241c:	cd bf       	out	0x3d, r28	; 61
    241e:	de bf       	out	0x3e, r29	; 62
		sysclk_enable_module(SYSCLK_PORT_D, SYSCLK_USART0);
	}
#endif
#ifdef USARTE0
	else if (module == &USARTE0) {
		sysclk_enable_module(SYSCLK_PORT_E, SYSCLK_USART0);
    2420:	60 e1       	ldi	r22, 0x10	; 16
    2422:	85 e0       	ldi	r24, 0x05	; 5
    2424:	0e 94 5a 01 	call	0x2b4	; 0x2b4 <sysclk_enable_module>
		.charlength =	UART_TERMINAL_SERIAL_CHAR_LEN,
		.paritytype =	UART_TERMINAL_SERIAL_PARITY,
		.stopbits	=	UART_TERMINAL_SERIAL_STOP_BIT
	};
	
	UART_TERMINAL_PORT.DIR |= UART_TERMINAL_TX_PIN;	// set the USART transmit pin to output
    2428:	e0 e8       	ldi	r30, 0x80	; 128
    242a:	f6 e0       	ldi	r31, 0x06	; 6
    242c:	80 81       	ld	r24, Z
    242e:	88 60       	ori	r24, 0x08	; 8
    2430:	80 83       	st	Z, r24
 * \param opt         Options needed to set up RS232 communication (see \ref usart_options_t).
 *
 */
static inline void stdio_serial_init(volatile void *usart, const usart_serial_options_t *opt)
{
	stdio_base = (void *)usart;
    2432:	80 ea       	ldi	r24, 0xA0	; 160
    2434:	9a e0       	ldi	r25, 0x0A	; 10
    2436:	80 93 e5 20 	sts	0x20E5, r24	; 0x8020e5 <stdio_base>
    243a:	90 93 e6 20 	sts	0x20E6, r25	; 0x8020e6 <stdio_base+0x1>
	ptr_put = (int (*)(void volatile*,char))&usart_serial_putchar;
    243e:	81 ed       	ldi	r24, 0xD1	; 209
    2440:	9f e0       	ldi	r25, 0x0F	; 15
    2442:	80 93 e3 20 	sts	0x20E3, r24	; 0x8020e3 <ptr_put>
    2446:	90 93 e4 20 	sts	0x20E4, r25	; 0x8020e4 <ptr_put+0x1>
	ptr_get = (void (*)(void volatile*,char*))&usart_serial_getchar;
    244a:	89 ec       	ldi	r24, 0xC9	; 201
    244c:	9f e0       	ldi	r25, 0x0F	; 15
    244e:	80 93 e1 20 	sts	0x20E1, r24	; 0x8020e1 <ptr_get>
    2452:	90 93 e2 20 	sts	0x20E2, r25	; 0x8020e2 <ptr_get+0x1>
static inline bool usart_serial_init(usart_if usart, const
		usart_serial_options_t *options)
{
	// USART options.
	usart_rs232_options_t usart_rs232_options;
	usart_rs232_options.charlength   = options->charlength;
    2456:	e6 e0       	ldi	r30, 0x06	; 6
    2458:	f0 e2       	ldi	r31, 0x20	; 32
    245a:	84 81       	ldd	r24, Z+4	; 0x04
    245c:	8d 83       	std	Y+5, r24	; 0x05
	usart_rs232_options.paritytype   = options->paritytype;
    245e:	85 81       	ldd	r24, Z+5	; 0x05
    2460:	8e 83       	std	Y+6, r24	; 0x06
	usart_rs232_options.stopbits     = options->stopbits;
    2462:	86 81       	ldd	r24, Z+6	; 0x06
    2464:	8f 83       	std	Y+7, r24	; 0x07
	usart_rs232_options.baudrate     = options->baudrate;
    2466:	80 81       	ld	r24, Z
    2468:	91 81       	ldd	r25, Z+1	; 0x01
    246a:	a2 81       	ldd	r26, Z+2	; 0x02
    246c:	b3 81       	ldd	r27, Z+3	; 0x03
    246e:	89 83       	std	Y+1, r24	; 0x01
    2470:	9a 83       	std	Y+2, r25	; 0x02
    2472:	ab 83       	std	Y+3, r26	; 0x03
    2474:	bc 83       	std	Y+4, r27	; 0x04
		sysclk_enable_module(SYSCLK_PORT_D,PR_USART1_bm);
	}
#endif
#ifdef USARTE0
	if((uint16_t)usart == (uint16_t)&USARTE0) {
		sysclk_enable_module(SYSCLK_PORT_E,PR_USART0_bm);
    2476:	60 e1       	ldi	r22, 0x10	; 16
    2478:	85 e0       	ldi	r24, 0x05	; 5
    247a:	0e 94 5a 01 	call	0x2b4	; 0x2b4 <sysclk_enable_module>
#ifdef USARTF1
	if((uint16_t)usart == (uint16_t)&USARTF1) {
		sysclk_enable_module(SYSCLK_PORT_F,PR_USART1_bm);
	}
#endif
	if (usart_init_rs232(usart, &usart_rs232_options)) {
    247e:	be 01       	movw	r22, r28
    2480:	6f 5f       	subi	r22, 0xFF	; 255
    2482:	7f 4f       	sbci	r23, 0xFF	; 255
    2484:	80 ea       	ldi	r24, 0xA0	; 160
    2486:	9a e0       	ldi	r25, 0x0A	; 10
    2488:	3f db       	rcall	.-2434   	; 0x1b08 <usart_init_rs232>
# endif

# if defined(__GNUC__)
#  if (XMEGA || MEGA_RF)
	// For AVR GCC libc print redirection uses fdevopen.
	fdevopen((int (*)(char, FILE*))(_write),(int (*)(FILE*))(_read));
    248a:	60 e7       	ldi	r22, 0x70	; 112
    248c:	71 e0       	ldi	r23, 0x01	; 1
    248e:	89 e8       	ldi	r24, 0x89	; 137
    2490:	91 e0       	ldi	r25, 0x01	; 1
    2492:	c4 d1       	rcall	.+904    	; 0x281c <fdevopen>
	
	stdio_serial_init(UART_TERMINAL_SERIAL, &usart_config); // function maps the serial output to printf
	
}
    2494:	27 96       	adiw	r28, 0x07	; 7
    2496:	cd bf       	out	0x3d, r28	; 61
    2498:	de bf       	out	0x3e, r29	; 62
    249a:	df 91       	pop	r29
    249c:	cf 91       	pop	r28
    249e:	08 95       	ret

000024a0 <__portable_avr_delay_cycles>:
 *
 * @{
 */
__always_optimize
static inline void __portable_avr_delay_cycles(unsigned long n)
{
    24a0:	04 c0       	rjmp	.+8      	; 0x24aa <__portable_avr_delay_cycles+0xa>
	while (n) {
		barrier();
		n--;
    24a2:	61 50       	subi	r22, 0x01	; 1
    24a4:	71 09       	sbc	r23, r1
    24a6:	81 09       	sbc	r24, r1
    24a8:	91 09       	sbc	r25, r1
 * @{
 */
__always_optimize
static inline void __portable_avr_delay_cycles(unsigned long n)
{
	while (n) {
    24aa:	61 15       	cp	r22, r1
    24ac:	71 05       	cpc	r23, r1
    24ae:	81 05       	cpc	r24, r1
    24b0:	91 05       	cpc	r25, r1
    24b2:	b9 f7       	brne	.-18     	; 0x24a2 <__portable_avr_delay_cycles+0x2>
    24b4:	08 95       	ret

000024b6 <main>:
#define I2C0 5



int main (void)
{
    24b6:	cf 93       	push	r28
    24b8:	df 93       	push	r29
    24ba:	cd b7       	in	r28, 0x3d	; 61
    24bc:	de b7       	in	r29, 0x3e	; 62
    24be:	2c 97       	sbiw	r28, 0x0c	; 12
    24c0:	cd bf       	out	0x3d, r28	; 61
    24c2:	de bf       	out	0x3e, r29	; 62

	/* This skeleton code simply sets the LED to the state of the button. */
	
	//struct bno055_t myBNO;
	
	sysclk_init();
    24c4:	0e 94 25 01 	call	0x24a	; 0x24a <sysclk_init>
	board_init();
    24c8:	57 dd       	rcall	.-1362   	; 0x1f78 <board_init>
	uart_device openLog;
	openlog_init(&openLog);
    24ca:	ce 01       	movw	r24, r28
    24cc:	01 96       	adiw	r24, 0x01	; 1
    24ce:	8b df       	rcall	.-234    	; 0x23e6 <openlog_init>
	uart_init(&openLog);
    24d0:	ce 01       	movw	r24, r28
    24d2:	01 96       	adiw	r24, 0x01	; 1
	uart_terminal_init();
    24d4:	68 dd       	rcall	.-1328   	; 0x1fa6 <uart_init>
	printf("uart is working\n");
    24d6:	9d df       	rcall	.-198    	; 0x2412 <uart_terminal_init>
    24d8:	85 e6       	ldi	r24, 0x65	; 101
    24da:	90 e2       	ldi	r25, 0x20	; 32
	//I2CInit(BN0_BAUD_HZ,BN0_ADDR);
	//BNO055_Config();
	p_bstru nums;
	u16BuffInit(&nums);
    24dc:	fc d1       	rcall	.+1016   	; 0x28d6 <puts>
    24de:	ce 01       	movw	r24, r28
    24e0:	0b 96       	adiw	r24, 0x0b	; 11
    24e2:	9a dc       	rcall	.-1740   	; 0x1e18 <u16BuffInit>
	uint8_t i=0;
    24e4:	d1 2c       	mov	r13, r1
	while (1) {
		
		i++;
		putu16(nums,i);
		printf("\n\nThe array is: ");
    24e6:	0f 2e       	mov	r0, r31
    24e8:	f5 e7       	ldi	r31, 0x75	; 117
    24ea:	af 2e       	mov	r10, r31
    24ec:	f0 e2       	ldi	r31, 0x20	; 32
    24ee:	bf 2e       	mov	r11, r31
    24f0:	f0 2d       	mov	r31, r0
		for(uint8_t j=0;j<10;j++)
		{
			printf(" %i", getu16(nums,j));
    24f2:	0f 2e       	mov	r0, r31
    24f4:	fe e3       	ldi	r31, 0x3E	; 62
    24f6:	ef 2e       	mov	r14, r31
    24f8:	f0 e2       	ldi	r31, 0x20	; 32
    24fa:	ff 2e       	mov	r15, r31
	p_bstru nums;
	u16BuffInit(&nums);
	uint8_t i=0;
	while (1) {
		
		i++;
    24fc:	f0 2d       	mov	r31, r0
		putu16(nums,i);
    24fe:	d3 94       	inc	r13
    2500:	6d 2d       	mov	r22, r13
    2502:	70 e0       	ldi	r23, 0x00	; 0
    2504:	8b 85       	ldd	r24, Y+11	; 0x0b
    2506:	9c 85       	ldd	r25, Y+12	; 0x0c
		printf("\n\nThe array is: ");
    2508:	b2 dc       	rcall	.-1692   	; 0x1e6e <putu16>
    250a:	bf 92       	push	r11
    250c:	af 92       	push	r10
    250e:	d0 d1       	rcall	.+928    	; 0x28b0 <printf>
    2510:	0f 90       	pop	r0
    2512:	0f 90       	pop	r0
    2514:	00 e0       	ldi	r16, 0x00	; 0
		for(uint8_t j=0;j<10;j++)
		{
			printf(" %i", getu16(nums,j));
    2516:	10 e0       	ldi	r17, 0x00	; 0
    2518:	b8 01       	movw	r22, r16
    251a:	8b 85       	ldd	r24, Y+11	; 0x0b
    251c:	9c 85       	ldd	r25, Y+12	; 0x0c
    251e:	eb dc       	rcall	.-1578   	; 0x1ef6 <getu16>
    2520:	9f 93       	push	r25
    2522:	8f 93       	push	r24
    2524:	ff 92       	push	r15
    2526:	ef 92       	push	r14
    2528:	c3 d1       	rcall	.+902    	; 0x28b0 <printf>
    252a:	0f 5f       	subi	r16, 0xFF	; 255
    252c:	1f 4f       	sbci	r17, 0xFF	; 255
	while (1) {
		
		i++;
		putu16(nums,i);
		printf("\n\nThe array is: ");
		for(uint8_t j=0;j<10;j++)
    252e:	0f 90       	pop	r0
    2530:	0f 90       	pop	r0
    2532:	0f 90       	pop	r0
    2534:	0f 90       	pop	r0
    2536:	0a 30       	cpi	r16, 0x0A	; 10
    2538:	11 05       	cpc	r17, r1
		{
			printf(" %i", getu16(nums,j));
		}
		delay_s(2);
    253a:	71 f7       	brne	.-36     	; 0x2518 <main+0x62>
    253c:	6c ea       	ldi	r22, 0xAC	; 172
    253e:	72 ec       	ldi	r23, 0xC2	; 194
    2540:	82 ea       	ldi	r24, 0xA2	; 162
    2542:	90 e0       	ldi	r25, 0x00	; 0
    2544:	ad df       	rcall	.-166    	; 0x24a0 <__portable_avr_delay_cycles>
		//get_gyro(gyro);
		//printf("\nAccelerometer is %i, \t %i, \t %i \n",acceleration[0], acceleration[1], acceleration[2]);
		//printf("Magnetometer is %i, \t %i, \t %i \n",mag[0],mag[1],mag[2] );
		//printf("Gyroscope is %i, \t %i, \t %i \n\n",gyro[0],gyro[1],gyro[2] );

	}
    2546:	db cf       	rjmp	.-74     	; 0x24fe <main+0x48>

00002548 <__divmodhi4>:
    2548:	97 fb       	bst	r25, 7
    254a:	07 2e       	mov	r0, r23
    254c:	16 f4       	brtc	.+4      	; 0x2552 <__divmodhi4+0xa>
    254e:	00 94       	com	r0
    2550:	06 d0       	rcall	.+12     	; 0x255e <__divmodhi4_neg1>
    2552:	77 fd       	sbrc	r23, 7
    2554:	08 d0       	rcall	.+16     	; 0x2566 <__divmodhi4_neg2>
    2556:	2d d0       	rcall	.+90     	; 0x25b2 <__udivmodhi4>
    2558:	07 fc       	sbrc	r0, 7
    255a:	05 d0       	rcall	.+10     	; 0x2566 <__divmodhi4_neg2>
    255c:	3e f4       	brtc	.+14     	; 0x256c <__divmodhi4_exit>

0000255e <__divmodhi4_neg1>:
    255e:	90 95       	com	r25
    2560:	81 95       	neg	r24
    2562:	9f 4f       	sbci	r25, 0xFF	; 255
    2564:	08 95       	ret

00002566 <__divmodhi4_neg2>:
    2566:	70 95       	com	r23
    2568:	61 95       	neg	r22
    256a:	7f 4f       	sbci	r23, 0xFF	; 255

0000256c <__divmodhi4_exit>:
    256c:	08 95       	ret

0000256e <__udivmodsi4>:
    256e:	a1 e2       	ldi	r26, 0x21	; 33
    2570:	1a 2e       	mov	r1, r26
    2572:	aa 1b       	sub	r26, r26
    2574:	bb 1b       	sub	r27, r27
    2576:	fd 01       	movw	r30, r26
    2578:	0d c0       	rjmp	.+26     	; 0x2594 <__udivmodsi4_ep>

0000257a <__udivmodsi4_loop>:
    257a:	aa 1f       	adc	r26, r26
    257c:	bb 1f       	adc	r27, r27
    257e:	ee 1f       	adc	r30, r30
    2580:	ff 1f       	adc	r31, r31
    2582:	a2 17       	cp	r26, r18
    2584:	b3 07       	cpc	r27, r19
    2586:	e4 07       	cpc	r30, r20
    2588:	f5 07       	cpc	r31, r21
    258a:	20 f0       	brcs	.+8      	; 0x2594 <__udivmodsi4_ep>
    258c:	a2 1b       	sub	r26, r18
    258e:	b3 0b       	sbc	r27, r19
    2590:	e4 0b       	sbc	r30, r20
    2592:	f5 0b       	sbc	r31, r21

00002594 <__udivmodsi4_ep>:
    2594:	66 1f       	adc	r22, r22
    2596:	77 1f       	adc	r23, r23
    2598:	88 1f       	adc	r24, r24
    259a:	99 1f       	adc	r25, r25
    259c:	1a 94       	dec	r1
    259e:	69 f7       	brne	.-38     	; 0x257a <__udivmodsi4_loop>
    25a0:	60 95       	com	r22
    25a2:	70 95       	com	r23
    25a4:	80 95       	com	r24
    25a6:	90 95       	com	r25
    25a8:	9b 01       	movw	r18, r22
    25aa:	ac 01       	movw	r20, r24
    25ac:	bd 01       	movw	r22, r26
    25ae:	cf 01       	movw	r24, r30
    25b0:	08 95       	ret

000025b2 <__udivmodhi4>:
    25b2:	aa 1b       	sub	r26, r26
    25b4:	bb 1b       	sub	r27, r27
    25b6:	51 e1       	ldi	r21, 0x11	; 17
    25b8:	07 c0       	rjmp	.+14     	; 0x25c8 <__udivmodhi4_ep>

000025ba <__udivmodhi4_loop>:
    25ba:	aa 1f       	adc	r26, r26
    25bc:	bb 1f       	adc	r27, r27
    25be:	a6 17       	cp	r26, r22
    25c0:	b7 07       	cpc	r27, r23
    25c2:	10 f0       	brcs	.+4      	; 0x25c8 <__udivmodhi4_ep>
    25c4:	a6 1b       	sub	r26, r22
    25c6:	b7 0b       	sbc	r27, r23

000025c8 <__udivmodhi4_ep>:
    25c8:	88 1f       	adc	r24, r24
    25ca:	99 1f       	adc	r25, r25
    25cc:	5a 95       	dec	r21
    25ce:	a9 f7       	brne	.-22     	; 0x25ba <__udivmodhi4_loop>
    25d0:	80 95       	com	r24
    25d2:	90 95       	com	r25
    25d4:	bc 01       	movw	r22, r24
    25d6:	cd 01       	movw	r24, r26
    25d8:	08 95       	ret

000025da <malloc>:
    25da:	0f 93       	push	r16
    25dc:	1f 93       	push	r17
    25de:	cf 93       	push	r28
    25e0:	df 93       	push	r29
    25e2:	82 30       	cpi	r24, 0x02	; 2
    25e4:	91 05       	cpc	r25, r1
    25e6:	10 f4       	brcc	.+4      	; 0x25ec <malloc+0x12>
    25e8:	82 e0       	ldi	r24, 0x02	; 2
    25ea:	90 e0       	ldi	r25, 0x00	; 0
    25ec:	e0 91 f1 20 	lds	r30, 0x20F1	; 0x8020f1 <__flp>
    25f0:	f0 91 f2 20 	lds	r31, 0x20F2	; 0x8020f2 <__flp+0x1>
    25f4:	20 e0       	ldi	r18, 0x00	; 0
    25f6:	30 e0       	ldi	r19, 0x00	; 0
    25f8:	a0 e0       	ldi	r26, 0x00	; 0
    25fa:	b0 e0       	ldi	r27, 0x00	; 0
    25fc:	30 97       	sbiw	r30, 0x00	; 0
    25fe:	19 f1       	breq	.+70     	; 0x2646 <malloc+0x6c>
    2600:	40 81       	ld	r20, Z
    2602:	51 81       	ldd	r21, Z+1	; 0x01
    2604:	02 81       	ldd	r16, Z+2	; 0x02
    2606:	13 81       	ldd	r17, Z+3	; 0x03
    2608:	48 17       	cp	r20, r24
    260a:	59 07       	cpc	r21, r25
    260c:	c8 f0       	brcs	.+50     	; 0x2640 <malloc+0x66>
    260e:	84 17       	cp	r24, r20
    2610:	95 07       	cpc	r25, r21
    2612:	69 f4       	brne	.+26     	; 0x262e <malloc+0x54>
    2614:	10 97       	sbiw	r26, 0x00	; 0
    2616:	31 f0       	breq	.+12     	; 0x2624 <malloc+0x4a>
    2618:	12 96       	adiw	r26, 0x02	; 2
    261a:	0c 93       	st	X, r16
    261c:	12 97       	sbiw	r26, 0x02	; 2
    261e:	13 96       	adiw	r26, 0x03	; 3
    2620:	1c 93       	st	X, r17
    2622:	27 c0       	rjmp	.+78     	; 0x2672 <malloc+0x98>
    2624:	00 93 f1 20 	sts	0x20F1, r16	; 0x8020f1 <__flp>
    2628:	10 93 f2 20 	sts	0x20F2, r17	; 0x8020f2 <__flp+0x1>
    262c:	22 c0       	rjmp	.+68     	; 0x2672 <malloc+0x98>
    262e:	21 15       	cp	r18, r1
    2630:	31 05       	cpc	r19, r1
    2632:	19 f0       	breq	.+6      	; 0x263a <malloc+0x60>
    2634:	42 17       	cp	r20, r18
    2636:	53 07       	cpc	r21, r19
    2638:	18 f4       	brcc	.+6      	; 0x2640 <malloc+0x66>
    263a:	9a 01       	movw	r18, r20
    263c:	bd 01       	movw	r22, r26
    263e:	ef 01       	movw	r28, r30
    2640:	df 01       	movw	r26, r30
    2642:	f8 01       	movw	r30, r16
    2644:	db cf       	rjmp	.-74     	; 0x25fc <malloc+0x22>
    2646:	21 15       	cp	r18, r1
    2648:	31 05       	cpc	r19, r1
    264a:	f9 f0       	breq	.+62     	; 0x268a <malloc+0xb0>
    264c:	28 1b       	sub	r18, r24
    264e:	39 0b       	sbc	r19, r25
    2650:	24 30       	cpi	r18, 0x04	; 4
    2652:	31 05       	cpc	r19, r1
    2654:	80 f4       	brcc	.+32     	; 0x2676 <malloc+0x9c>
    2656:	8a 81       	ldd	r24, Y+2	; 0x02
    2658:	9b 81       	ldd	r25, Y+3	; 0x03
    265a:	61 15       	cp	r22, r1
    265c:	71 05       	cpc	r23, r1
    265e:	21 f0       	breq	.+8      	; 0x2668 <malloc+0x8e>
    2660:	fb 01       	movw	r30, r22
    2662:	82 83       	std	Z+2, r24	; 0x02
    2664:	93 83       	std	Z+3, r25	; 0x03
    2666:	04 c0       	rjmp	.+8      	; 0x2670 <malloc+0x96>
    2668:	80 93 f1 20 	sts	0x20F1, r24	; 0x8020f1 <__flp>
    266c:	90 93 f2 20 	sts	0x20F2, r25	; 0x8020f2 <__flp+0x1>
    2670:	fe 01       	movw	r30, r28
    2672:	32 96       	adiw	r30, 0x02	; 2
    2674:	44 c0       	rjmp	.+136    	; 0x26fe <malloc+0x124>
    2676:	fe 01       	movw	r30, r28
    2678:	e2 0f       	add	r30, r18
    267a:	f3 1f       	adc	r31, r19
    267c:	81 93       	st	Z+, r24
    267e:	91 93       	st	Z+, r25
    2680:	22 50       	subi	r18, 0x02	; 2
    2682:	31 09       	sbc	r19, r1
    2684:	28 83       	st	Y, r18
    2686:	39 83       	std	Y+1, r19	; 0x01
    2688:	3a c0       	rjmp	.+116    	; 0x26fe <malloc+0x124>
    268a:	20 91 ef 20 	lds	r18, 0x20EF	; 0x8020ef <__brkval>
    268e:	30 91 f0 20 	lds	r19, 0x20F0	; 0x8020f0 <__brkval+0x1>
    2692:	23 2b       	or	r18, r19
    2694:	41 f4       	brne	.+16     	; 0x26a6 <malloc+0xcc>
    2696:	20 91 02 20 	lds	r18, 0x2002	; 0x802002 <__malloc_heap_start>
    269a:	30 91 03 20 	lds	r19, 0x2003	; 0x802003 <__malloc_heap_start+0x1>
    269e:	20 93 ef 20 	sts	0x20EF, r18	; 0x8020ef <__brkval>
    26a2:	30 93 f0 20 	sts	0x20F0, r19	; 0x8020f0 <__brkval+0x1>
    26a6:	20 91 00 20 	lds	r18, 0x2000	; 0x802000 <__data_start>
    26aa:	30 91 01 20 	lds	r19, 0x2001	; 0x802001 <__data_start+0x1>
    26ae:	21 15       	cp	r18, r1
    26b0:	31 05       	cpc	r19, r1
    26b2:	41 f4       	brne	.+16     	; 0x26c4 <malloc+0xea>
    26b4:	2d b7       	in	r18, 0x3d	; 61
    26b6:	3e b7       	in	r19, 0x3e	; 62
    26b8:	40 91 04 20 	lds	r20, 0x2004	; 0x802004 <__malloc_margin>
    26bc:	50 91 05 20 	lds	r21, 0x2005	; 0x802005 <__malloc_margin+0x1>
    26c0:	24 1b       	sub	r18, r20
    26c2:	35 0b       	sbc	r19, r21
    26c4:	e0 91 ef 20 	lds	r30, 0x20EF	; 0x8020ef <__brkval>
    26c8:	f0 91 f0 20 	lds	r31, 0x20F0	; 0x8020f0 <__brkval+0x1>
    26cc:	e2 17       	cp	r30, r18
    26ce:	f3 07       	cpc	r31, r19
    26d0:	a0 f4       	brcc	.+40     	; 0x26fa <malloc+0x120>
    26d2:	2e 1b       	sub	r18, r30
    26d4:	3f 0b       	sbc	r19, r31
    26d6:	28 17       	cp	r18, r24
    26d8:	39 07       	cpc	r19, r25
    26da:	78 f0       	brcs	.+30     	; 0x26fa <malloc+0x120>
    26dc:	ac 01       	movw	r20, r24
    26de:	4e 5f       	subi	r20, 0xFE	; 254
    26e0:	5f 4f       	sbci	r21, 0xFF	; 255
    26e2:	24 17       	cp	r18, r20
    26e4:	35 07       	cpc	r19, r21
    26e6:	48 f0       	brcs	.+18     	; 0x26fa <malloc+0x120>
    26e8:	4e 0f       	add	r20, r30
    26ea:	5f 1f       	adc	r21, r31
    26ec:	40 93 ef 20 	sts	0x20EF, r20	; 0x8020ef <__brkval>
    26f0:	50 93 f0 20 	sts	0x20F0, r21	; 0x8020f0 <__brkval+0x1>
    26f4:	81 93       	st	Z+, r24
    26f6:	91 93       	st	Z+, r25
    26f8:	02 c0       	rjmp	.+4      	; 0x26fe <malloc+0x124>
    26fa:	e0 e0       	ldi	r30, 0x00	; 0
    26fc:	f0 e0       	ldi	r31, 0x00	; 0
    26fe:	cf 01       	movw	r24, r30
    2700:	df 91       	pop	r29
    2702:	cf 91       	pop	r28
    2704:	1f 91       	pop	r17
    2706:	0f 91       	pop	r16
    2708:	08 95       	ret

0000270a <free>:
    270a:	cf 93       	push	r28
    270c:	df 93       	push	r29
    270e:	00 97       	sbiw	r24, 0x00	; 0
    2710:	09 f4       	brne	.+2      	; 0x2714 <free+0xa>
    2712:	81 c0       	rjmp	.+258    	; 0x2816 <free+0x10c>
    2714:	fc 01       	movw	r30, r24
    2716:	32 97       	sbiw	r30, 0x02	; 2
    2718:	12 82       	std	Z+2, r1	; 0x02
    271a:	13 82       	std	Z+3, r1	; 0x03
    271c:	a0 91 f1 20 	lds	r26, 0x20F1	; 0x8020f1 <__flp>
    2720:	b0 91 f2 20 	lds	r27, 0x20F2	; 0x8020f2 <__flp+0x1>
    2724:	10 97       	sbiw	r26, 0x00	; 0
    2726:	81 f4       	brne	.+32     	; 0x2748 <free+0x3e>
    2728:	20 81       	ld	r18, Z
    272a:	31 81       	ldd	r19, Z+1	; 0x01
    272c:	82 0f       	add	r24, r18
    272e:	93 1f       	adc	r25, r19
    2730:	20 91 ef 20 	lds	r18, 0x20EF	; 0x8020ef <__brkval>
    2734:	30 91 f0 20 	lds	r19, 0x20F0	; 0x8020f0 <__brkval+0x1>
    2738:	28 17       	cp	r18, r24
    273a:	39 07       	cpc	r19, r25
    273c:	51 f5       	brne	.+84     	; 0x2792 <free+0x88>
    273e:	e0 93 ef 20 	sts	0x20EF, r30	; 0x8020ef <__brkval>
    2742:	f0 93 f0 20 	sts	0x20F0, r31	; 0x8020f0 <__brkval+0x1>
    2746:	67 c0       	rjmp	.+206    	; 0x2816 <free+0x10c>
    2748:	ed 01       	movw	r28, r26
    274a:	20 e0       	ldi	r18, 0x00	; 0
    274c:	30 e0       	ldi	r19, 0x00	; 0
    274e:	ce 17       	cp	r28, r30
    2750:	df 07       	cpc	r29, r31
    2752:	40 f4       	brcc	.+16     	; 0x2764 <free+0x5a>
    2754:	4a 81       	ldd	r20, Y+2	; 0x02
    2756:	5b 81       	ldd	r21, Y+3	; 0x03
    2758:	9e 01       	movw	r18, r28
    275a:	41 15       	cp	r20, r1
    275c:	51 05       	cpc	r21, r1
    275e:	f1 f0       	breq	.+60     	; 0x279c <free+0x92>
    2760:	ea 01       	movw	r28, r20
    2762:	f5 cf       	rjmp	.-22     	; 0x274e <free+0x44>
    2764:	c2 83       	std	Z+2, r28	; 0x02
    2766:	d3 83       	std	Z+3, r29	; 0x03
    2768:	40 81       	ld	r20, Z
    276a:	51 81       	ldd	r21, Z+1	; 0x01
    276c:	84 0f       	add	r24, r20
    276e:	95 1f       	adc	r25, r21
    2770:	c8 17       	cp	r28, r24
    2772:	d9 07       	cpc	r29, r25
    2774:	59 f4       	brne	.+22     	; 0x278c <free+0x82>
    2776:	88 81       	ld	r24, Y
    2778:	99 81       	ldd	r25, Y+1	; 0x01
    277a:	84 0f       	add	r24, r20
    277c:	95 1f       	adc	r25, r21
    277e:	02 96       	adiw	r24, 0x02	; 2
    2780:	80 83       	st	Z, r24
    2782:	91 83       	std	Z+1, r25	; 0x01
    2784:	8a 81       	ldd	r24, Y+2	; 0x02
    2786:	9b 81       	ldd	r25, Y+3	; 0x03
    2788:	82 83       	std	Z+2, r24	; 0x02
    278a:	93 83       	std	Z+3, r25	; 0x03
    278c:	21 15       	cp	r18, r1
    278e:	31 05       	cpc	r19, r1
    2790:	29 f4       	brne	.+10     	; 0x279c <free+0x92>
    2792:	e0 93 f1 20 	sts	0x20F1, r30	; 0x8020f1 <__flp>
    2796:	f0 93 f2 20 	sts	0x20F2, r31	; 0x8020f2 <__flp+0x1>
    279a:	3d c0       	rjmp	.+122    	; 0x2816 <free+0x10c>
    279c:	e9 01       	movw	r28, r18
    279e:	ea 83       	std	Y+2, r30	; 0x02
    27a0:	fb 83       	std	Y+3, r31	; 0x03
    27a2:	49 91       	ld	r20, Y+
    27a4:	59 91       	ld	r21, Y+
    27a6:	c4 0f       	add	r28, r20
    27a8:	d5 1f       	adc	r29, r21
    27aa:	ec 17       	cp	r30, r28
    27ac:	fd 07       	cpc	r31, r29
    27ae:	61 f4       	brne	.+24     	; 0x27c8 <free+0xbe>
    27b0:	80 81       	ld	r24, Z
    27b2:	91 81       	ldd	r25, Z+1	; 0x01
    27b4:	84 0f       	add	r24, r20
    27b6:	95 1f       	adc	r25, r21
    27b8:	02 96       	adiw	r24, 0x02	; 2
    27ba:	e9 01       	movw	r28, r18
    27bc:	88 83       	st	Y, r24
    27be:	99 83       	std	Y+1, r25	; 0x01
    27c0:	82 81       	ldd	r24, Z+2	; 0x02
    27c2:	93 81       	ldd	r25, Z+3	; 0x03
    27c4:	8a 83       	std	Y+2, r24	; 0x02
    27c6:	9b 83       	std	Y+3, r25	; 0x03
    27c8:	e0 e0       	ldi	r30, 0x00	; 0
    27ca:	f0 e0       	ldi	r31, 0x00	; 0
    27cc:	12 96       	adiw	r26, 0x02	; 2
    27ce:	8d 91       	ld	r24, X+
    27d0:	9c 91       	ld	r25, X
    27d2:	13 97       	sbiw	r26, 0x03	; 3
    27d4:	00 97       	sbiw	r24, 0x00	; 0
    27d6:	19 f0       	breq	.+6      	; 0x27de <free+0xd4>
    27d8:	fd 01       	movw	r30, r26
    27da:	dc 01       	movw	r26, r24
    27dc:	f7 cf       	rjmp	.-18     	; 0x27cc <free+0xc2>
    27de:	8d 91       	ld	r24, X+
    27e0:	9c 91       	ld	r25, X
    27e2:	11 97       	sbiw	r26, 0x01	; 1
    27e4:	9d 01       	movw	r18, r26
    27e6:	2e 5f       	subi	r18, 0xFE	; 254
    27e8:	3f 4f       	sbci	r19, 0xFF	; 255
    27ea:	82 0f       	add	r24, r18
    27ec:	93 1f       	adc	r25, r19
    27ee:	20 91 ef 20 	lds	r18, 0x20EF	; 0x8020ef <__brkval>
    27f2:	30 91 f0 20 	lds	r19, 0x20F0	; 0x8020f0 <__brkval+0x1>
    27f6:	28 17       	cp	r18, r24
    27f8:	39 07       	cpc	r19, r25
    27fa:	69 f4       	brne	.+26     	; 0x2816 <free+0x10c>
    27fc:	30 97       	sbiw	r30, 0x00	; 0
    27fe:	29 f4       	brne	.+10     	; 0x280a <free+0x100>
    2800:	10 92 f1 20 	sts	0x20F1, r1	; 0x8020f1 <__flp>
    2804:	10 92 f2 20 	sts	0x20F2, r1	; 0x8020f2 <__flp+0x1>
    2808:	02 c0       	rjmp	.+4      	; 0x280e <free+0x104>
    280a:	12 82       	std	Z+2, r1	; 0x02
    280c:	13 82       	std	Z+3, r1	; 0x03
    280e:	a0 93 ef 20 	sts	0x20EF, r26	; 0x8020ef <__brkval>
    2812:	b0 93 f0 20 	sts	0x20F0, r27	; 0x8020f0 <__brkval+0x1>
    2816:	df 91       	pop	r29
    2818:	cf 91       	pop	r28
    281a:	08 95       	ret

0000281c <fdevopen>:
    281c:	0f 93       	push	r16
    281e:	1f 93       	push	r17
    2820:	cf 93       	push	r28
    2822:	df 93       	push	r29
    2824:	00 97       	sbiw	r24, 0x00	; 0
    2826:	31 f4       	brne	.+12     	; 0x2834 <fdevopen+0x18>
    2828:	61 15       	cp	r22, r1
    282a:	71 05       	cpc	r23, r1
    282c:	19 f4       	brne	.+6      	; 0x2834 <fdevopen+0x18>
    282e:	80 e0       	ldi	r24, 0x00	; 0
    2830:	90 e0       	ldi	r25, 0x00	; 0
    2832:	39 c0       	rjmp	.+114    	; 0x28a6 <fdevopen+0x8a>
    2834:	8b 01       	movw	r16, r22
    2836:	ec 01       	movw	r28, r24
    2838:	6e e0       	ldi	r22, 0x0E	; 14
    283a:	70 e0       	ldi	r23, 0x00	; 0
    283c:	81 e0       	ldi	r24, 0x01	; 1
    283e:	90 e0       	ldi	r25, 0x00	; 0
    2840:	71 d2       	rcall	.+1250   	; 0x2d24 <calloc>
    2842:	fc 01       	movw	r30, r24
    2844:	89 2b       	or	r24, r25
    2846:	99 f3       	breq	.-26     	; 0x282e <fdevopen+0x12>
    2848:	80 e8       	ldi	r24, 0x80	; 128
    284a:	83 83       	std	Z+3, r24	; 0x03
    284c:	01 15       	cp	r16, r1
    284e:	11 05       	cpc	r17, r1
    2850:	71 f0       	breq	.+28     	; 0x286e <fdevopen+0x52>
    2852:	02 87       	std	Z+10, r16	; 0x0a
    2854:	13 87       	std	Z+11, r17	; 0x0b
    2856:	81 e8       	ldi	r24, 0x81	; 129
    2858:	83 83       	std	Z+3, r24	; 0x03
    285a:	80 91 f3 20 	lds	r24, 0x20F3	; 0x8020f3 <__iob>
    285e:	90 91 f4 20 	lds	r25, 0x20F4	; 0x8020f4 <__iob+0x1>
    2862:	89 2b       	or	r24, r25
    2864:	21 f4       	brne	.+8      	; 0x286e <fdevopen+0x52>
    2866:	e0 93 f3 20 	sts	0x20F3, r30	; 0x8020f3 <__iob>
    286a:	f0 93 f4 20 	sts	0x20F4, r31	; 0x8020f4 <__iob+0x1>
    286e:	20 97       	sbiw	r28, 0x00	; 0
    2870:	c9 f0       	breq	.+50     	; 0x28a4 <fdevopen+0x88>
    2872:	c0 87       	std	Z+8, r28	; 0x08
    2874:	d1 87       	std	Z+9, r29	; 0x09
    2876:	83 81       	ldd	r24, Z+3	; 0x03
    2878:	82 60       	ori	r24, 0x02	; 2
    287a:	83 83       	std	Z+3, r24	; 0x03
    287c:	80 91 f5 20 	lds	r24, 0x20F5	; 0x8020f5 <__iob+0x2>
    2880:	90 91 f6 20 	lds	r25, 0x20F6	; 0x8020f6 <__iob+0x3>
    2884:	89 2b       	or	r24, r25
    2886:	71 f4       	brne	.+28     	; 0x28a4 <fdevopen+0x88>
    2888:	e0 93 f5 20 	sts	0x20F5, r30	; 0x8020f5 <__iob+0x2>
    288c:	f0 93 f6 20 	sts	0x20F6, r31	; 0x8020f6 <__iob+0x3>
    2890:	80 91 f7 20 	lds	r24, 0x20F7	; 0x8020f7 <__iob+0x4>
    2894:	90 91 f8 20 	lds	r25, 0x20F8	; 0x8020f8 <__iob+0x5>
    2898:	89 2b       	or	r24, r25
    289a:	21 f4       	brne	.+8      	; 0x28a4 <fdevopen+0x88>
    289c:	e0 93 f7 20 	sts	0x20F7, r30	; 0x8020f7 <__iob+0x4>
    28a0:	f0 93 f8 20 	sts	0x20F8, r31	; 0x8020f8 <__iob+0x5>
    28a4:	cf 01       	movw	r24, r30
    28a6:	df 91       	pop	r29
    28a8:	cf 91       	pop	r28
    28aa:	1f 91       	pop	r17
    28ac:	0f 91       	pop	r16
    28ae:	08 95       	ret

000028b0 <printf>:
    28b0:	cf 93       	push	r28
    28b2:	df 93       	push	r29
    28b4:	cd b7       	in	r28, 0x3d	; 61
    28b6:	de b7       	in	r29, 0x3e	; 62
    28b8:	ae 01       	movw	r20, r28
    28ba:	4a 5f       	subi	r20, 0xFA	; 250
    28bc:	5f 4f       	sbci	r21, 0xFF	; 255
    28be:	fa 01       	movw	r30, r20
    28c0:	61 91       	ld	r22, Z+
    28c2:	71 91       	ld	r23, Z+
    28c4:	af 01       	movw	r20, r30
    28c6:	80 91 f5 20 	lds	r24, 0x20F5	; 0x8020f5 <__iob+0x2>
    28ca:	90 91 f6 20 	lds	r25, 0x20F6	; 0x8020f6 <__iob+0x3>
    28ce:	33 d0       	rcall	.+102    	; 0x2936 <vfprintf>
    28d0:	df 91       	pop	r29
    28d2:	cf 91       	pop	r28
    28d4:	08 95       	ret

000028d6 <puts>:
    28d6:	0f 93       	push	r16
    28d8:	1f 93       	push	r17
    28da:	cf 93       	push	r28
    28dc:	df 93       	push	r29
    28de:	e0 91 f5 20 	lds	r30, 0x20F5	; 0x8020f5 <__iob+0x2>
    28e2:	f0 91 f6 20 	lds	r31, 0x20F6	; 0x8020f6 <__iob+0x3>
    28e6:	23 81       	ldd	r18, Z+3	; 0x03
    28e8:	21 ff       	sbrs	r18, 1
    28ea:	1b c0       	rjmp	.+54     	; 0x2922 <puts+0x4c>
    28ec:	8c 01       	movw	r16, r24
    28ee:	d0 e0       	ldi	r29, 0x00	; 0
    28f0:	c0 e0       	ldi	r28, 0x00	; 0
    28f2:	f8 01       	movw	r30, r16
    28f4:	81 91       	ld	r24, Z+
    28f6:	8f 01       	movw	r16, r30
    28f8:	60 91 f5 20 	lds	r22, 0x20F5	; 0x8020f5 <__iob+0x2>
    28fc:	70 91 f6 20 	lds	r23, 0x20F6	; 0x8020f6 <__iob+0x3>
    2900:	db 01       	movw	r26, r22
    2902:	18 96       	adiw	r26, 0x08	; 8
    2904:	ed 91       	ld	r30, X+
    2906:	fc 91       	ld	r31, X
    2908:	19 97       	sbiw	r26, 0x09	; 9
    290a:	88 23       	and	r24, r24
    290c:	31 f0       	breq	.+12     	; 0x291a <puts+0x44>
    290e:	19 95       	eicall
    2910:	89 2b       	or	r24, r25
    2912:	79 f3       	breq	.-34     	; 0x28f2 <puts+0x1c>
    2914:	df ef       	ldi	r29, 0xFF	; 255
    2916:	cf ef       	ldi	r28, 0xFF	; 255
    2918:	ec cf       	rjmp	.-40     	; 0x28f2 <puts+0x1c>
    291a:	8a e0       	ldi	r24, 0x0A	; 10
    291c:	19 95       	eicall
    291e:	89 2b       	or	r24, r25
    2920:	19 f0       	breq	.+6      	; 0x2928 <puts+0x52>
    2922:	8f ef       	ldi	r24, 0xFF	; 255
    2924:	9f ef       	ldi	r25, 0xFF	; 255
    2926:	02 c0       	rjmp	.+4      	; 0x292c <puts+0x56>
    2928:	8d 2f       	mov	r24, r29
    292a:	9c 2f       	mov	r25, r28
    292c:	df 91       	pop	r29
    292e:	cf 91       	pop	r28
    2930:	1f 91       	pop	r17
    2932:	0f 91       	pop	r16
    2934:	08 95       	ret

00002936 <vfprintf>:
    2936:	2f 92       	push	r2
    2938:	3f 92       	push	r3
    293a:	4f 92       	push	r4
    293c:	5f 92       	push	r5
    293e:	6f 92       	push	r6
    2940:	7f 92       	push	r7
    2942:	8f 92       	push	r8
    2944:	9f 92       	push	r9
    2946:	af 92       	push	r10
    2948:	bf 92       	push	r11
    294a:	cf 92       	push	r12
    294c:	df 92       	push	r13
    294e:	ef 92       	push	r14
    2950:	ff 92       	push	r15
    2952:	0f 93       	push	r16
    2954:	1f 93       	push	r17
    2956:	cf 93       	push	r28
    2958:	df 93       	push	r29
    295a:	cd b7       	in	r28, 0x3d	; 61
    295c:	de b7       	in	r29, 0x3e	; 62
    295e:	2b 97       	sbiw	r28, 0x0b	; 11
    2960:	cd bf       	out	0x3d, r28	; 61
    2962:	de bf       	out	0x3e, r29	; 62
    2964:	6c 01       	movw	r12, r24
    2966:	7b 01       	movw	r14, r22
    2968:	8a 01       	movw	r16, r20
    296a:	fc 01       	movw	r30, r24
    296c:	16 82       	std	Z+6, r1	; 0x06
    296e:	17 82       	std	Z+7, r1	; 0x07
    2970:	83 81       	ldd	r24, Z+3	; 0x03
    2972:	81 ff       	sbrs	r24, 1
    2974:	bf c1       	rjmp	.+894    	; 0x2cf4 <vfprintf+0x3be>
    2976:	ce 01       	movw	r24, r28
    2978:	01 96       	adiw	r24, 0x01	; 1
    297a:	3c 01       	movw	r6, r24
    297c:	f6 01       	movw	r30, r12
    297e:	93 81       	ldd	r25, Z+3	; 0x03
    2980:	f7 01       	movw	r30, r14
    2982:	93 fd       	sbrc	r25, 3
    2984:	85 91       	lpm	r24, Z+
    2986:	93 ff       	sbrs	r25, 3
    2988:	81 91       	ld	r24, Z+
    298a:	7f 01       	movw	r14, r30
    298c:	88 23       	and	r24, r24
    298e:	09 f4       	brne	.+2      	; 0x2992 <vfprintf+0x5c>
    2990:	ad c1       	rjmp	.+858    	; 0x2cec <vfprintf+0x3b6>
    2992:	85 32       	cpi	r24, 0x25	; 37
    2994:	39 f4       	brne	.+14     	; 0x29a4 <vfprintf+0x6e>
    2996:	93 fd       	sbrc	r25, 3
    2998:	85 91       	lpm	r24, Z+
    299a:	93 ff       	sbrs	r25, 3
    299c:	81 91       	ld	r24, Z+
    299e:	7f 01       	movw	r14, r30
    29a0:	85 32       	cpi	r24, 0x25	; 37
    29a2:	21 f4       	brne	.+8      	; 0x29ac <vfprintf+0x76>
    29a4:	b6 01       	movw	r22, r12
    29a6:	90 e0       	ldi	r25, 0x00	; 0
    29a8:	f4 d1       	rcall	.+1000   	; 0x2d92 <fputc>
    29aa:	e8 cf       	rjmp	.-48     	; 0x297c <vfprintf+0x46>
    29ac:	91 2c       	mov	r9, r1
    29ae:	21 2c       	mov	r2, r1
    29b0:	31 2c       	mov	r3, r1
    29b2:	ff e1       	ldi	r31, 0x1F	; 31
    29b4:	f3 15       	cp	r31, r3
    29b6:	d8 f0       	brcs	.+54     	; 0x29ee <vfprintf+0xb8>
    29b8:	8b 32       	cpi	r24, 0x2B	; 43
    29ba:	79 f0       	breq	.+30     	; 0x29da <vfprintf+0xa4>
    29bc:	38 f4       	brcc	.+14     	; 0x29cc <vfprintf+0x96>
    29be:	80 32       	cpi	r24, 0x20	; 32
    29c0:	79 f0       	breq	.+30     	; 0x29e0 <vfprintf+0xaa>
    29c2:	83 32       	cpi	r24, 0x23	; 35
    29c4:	a1 f4       	brne	.+40     	; 0x29ee <vfprintf+0xb8>
    29c6:	23 2d       	mov	r18, r3
    29c8:	20 61       	ori	r18, 0x10	; 16
    29ca:	1d c0       	rjmp	.+58     	; 0x2a06 <vfprintf+0xd0>
    29cc:	8d 32       	cpi	r24, 0x2D	; 45
    29ce:	61 f0       	breq	.+24     	; 0x29e8 <vfprintf+0xb2>
    29d0:	80 33       	cpi	r24, 0x30	; 48
    29d2:	69 f4       	brne	.+26     	; 0x29ee <vfprintf+0xb8>
    29d4:	23 2d       	mov	r18, r3
    29d6:	21 60       	ori	r18, 0x01	; 1
    29d8:	16 c0       	rjmp	.+44     	; 0x2a06 <vfprintf+0xd0>
    29da:	83 2d       	mov	r24, r3
    29dc:	82 60       	ori	r24, 0x02	; 2
    29de:	38 2e       	mov	r3, r24
    29e0:	e3 2d       	mov	r30, r3
    29e2:	e4 60       	ori	r30, 0x04	; 4
    29e4:	3e 2e       	mov	r3, r30
    29e6:	2a c0       	rjmp	.+84     	; 0x2a3c <vfprintf+0x106>
    29e8:	f3 2d       	mov	r31, r3
    29ea:	f8 60       	ori	r31, 0x08	; 8
    29ec:	1d c0       	rjmp	.+58     	; 0x2a28 <vfprintf+0xf2>
    29ee:	37 fc       	sbrc	r3, 7
    29f0:	2d c0       	rjmp	.+90     	; 0x2a4c <vfprintf+0x116>
    29f2:	20 ed       	ldi	r18, 0xD0	; 208
    29f4:	28 0f       	add	r18, r24
    29f6:	2a 30       	cpi	r18, 0x0A	; 10
    29f8:	40 f0       	brcs	.+16     	; 0x2a0a <vfprintf+0xd4>
    29fa:	8e 32       	cpi	r24, 0x2E	; 46
    29fc:	b9 f4       	brne	.+46     	; 0x2a2c <vfprintf+0xf6>
    29fe:	36 fc       	sbrc	r3, 6
    2a00:	75 c1       	rjmp	.+746    	; 0x2cec <vfprintf+0x3b6>
    2a02:	23 2d       	mov	r18, r3
    2a04:	20 64       	ori	r18, 0x40	; 64
    2a06:	32 2e       	mov	r3, r18
    2a08:	19 c0       	rjmp	.+50     	; 0x2a3c <vfprintf+0x106>
    2a0a:	36 fe       	sbrs	r3, 6
    2a0c:	06 c0       	rjmp	.+12     	; 0x2a1a <vfprintf+0xe4>
    2a0e:	8a e0       	ldi	r24, 0x0A	; 10
    2a10:	98 9e       	mul	r9, r24
    2a12:	20 0d       	add	r18, r0
    2a14:	11 24       	eor	r1, r1
    2a16:	92 2e       	mov	r9, r18
    2a18:	11 c0       	rjmp	.+34     	; 0x2a3c <vfprintf+0x106>
    2a1a:	ea e0       	ldi	r30, 0x0A	; 10
    2a1c:	2e 9e       	mul	r2, r30
    2a1e:	20 0d       	add	r18, r0
    2a20:	11 24       	eor	r1, r1
    2a22:	22 2e       	mov	r2, r18
    2a24:	f3 2d       	mov	r31, r3
    2a26:	f0 62       	ori	r31, 0x20	; 32
    2a28:	3f 2e       	mov	r3, r31
    2a2a:	08 c0       	rjmp	.+16     	; 0x2a3c <vfprintf+0x106>
    2a2c:	8c 36       	cpi	r24, 0x6C	; 108
    2a2e:	21 f4       	brne	.+8      	; 0x2a38 <vfprintf+0x102>
    2a30:	83 2d       	mov	r24, r3
    2a32:	80 68       	ori	r24, 0x80	; 128
    2a34:	38 2e       	mov	r3, r24
    2a36:	02 c0       	rjmp	.+4      	; 0x2a3c <vfprintf+0x106>
    2a38:	88 36       	cpi	r24, 0x68	; 104
    2a3a:	41 f4       	brne	.+16     	; 0x2a4c <vfprintf+0x116>
    2a3c:	f7 01       	movw	r30, r14
    2a3e:	93 fd       	sbrc	r25, 3
    2a40:	85 91       	lpm	r24, Z+
    2a42:	93 ff       	sbrs	r25, 3
    2a44:	81 91       	ld	r24, Z+
    2a46:	7f 01       	movw	r14, r30
    2a48:	81 11       	cpse	r24, r1
    2a4a:	b3 cf       	rjmp	.-154    	; 0x29b2 <vfprintf+0x7c>
    2a4c:	98 2f       	mov	r25, r24
    2a4e:	9f 7d       	andi	r25, 0xDF	; 223
    2a50:	95 54       	subi	r25, 0x45	; 69
    2a52:	93 30       	cpi	r25, 0x03	; 3
    2a54:	28 f4       	brcc	.+10     	; 0x2a60 <vfprintf+0x12a>
    2a56:	0c 5f       	subi	r16, 0xFC	; 252
    2a58:	1f 4f       	sbci	r17, 0xFF	; 255
    2a5a:	9f e3       	ldi	r25, 0x3F	; 63
    2a5c:	99 83       	std	Y+1, r25	; 0x01
    2a5e:	0d c0       	rjmp	.+26     	; 0x2a7a <vfprintf+0x144>
    2a60:	83 36       	cpi	r24, 0x63	; 99
    2a62:	31 f0       	breq	.+12     	; 0x2a70 <vfprintf+0x13a>
    2a64:	83 37       	cpi	r24, 0x73	; 115
    2a66:	71 f0       	breq	.+28     	; 0x2a84 <vfprintf+0x14e>
    2a68:	83 35       	cpi	r24, 0x53	; 83
    2a6a:	09 f0       	breq	.+2      	; 0x2a6e <vfprintf+0x138>
    2a6c:	55 c0       	rjmp	.+170    	; 0x2b18 <vfprintf+0x1e2>
    2a6e:	20 c0       	rjmp	.+64     	; 0x2ab0 <vfprintf+0x17a>
    2a70:	f8 01       	movw	r30, r16
    2a72:	80 81       	ld	r24, Z
    2a74:	89 83       	std	Y+1, r24	; 0x01
    2a76:	0e 5f       	subi	r16, 0xFE	; 254
    2a78:	1f 4f       	sbci	r17, 0xFF	; 255
    2a7a:	88 24       	eor	r8, r8
    2a7c:	83 94       	inc	r8
    2a7e:	91 2c       	mov	r9, r1
    2a80:	53 01       	movw	r10, r6
    2a82:	12 c0       	rjmp	.+36     	; 0x2aa8 <vfprintf+0x172>
    2a84:	28 01       	movw	r4, r16
    2a86:	f2 e0       	ldi	r31, 0x02	; 2
    2a88:	4f 0e       	add	r4, r31
    2a8a:	51 1c       	adc	r5, r1
    2a8c:	f8 01       	movw	r30, r16
    2a8e:	a0 80       	ld	r10, Z
    2a90:	b1 80       	ldd	r11, Z+1	; 0x01
    2a92:	36 fe       	sbrs	r3, 6
    2a94:	03 c0       	rjmp	.+6      	; 0x2a9c <vfprintf+0x166>
    2a96:	69 2d       	mov	r22, r9
    2a98:	70 e0       	ldi	r23, 0x00	; 0
    2a9a:	02 c0       	rjmp	.+4      	; 0x2aa0 <vfprintf+0x16a>
    2a9c:	6f ef       	ldi	r22, 0xFF	; 255
    2a9e:	7f ef       	ldi	r23, 0xFF	; 255
    2aa0:	c5 01       	movw	r24, r10
    2aa2:	6c d1       	rcall	.+728    	; 0x2d7c <strnlen>
    2aa4:	4c 01       	movw	r8, r24
    2aa6:	82 01       	movw	r16, r4
    2aa8:	f3 2d       	mov	r31, r3
    2aaa:	ff 77       	andi	r31, 0x7F	; 127
    2aac:	3f 2e       	mov	r3, r31
    2aae:	15 c0       	rjmp	.+42     	; 0x2ada <vfprintf+0x1a4>
    2ab0:	28 01       	movw	r4, r16
    2ab2:	22 e0       	ldi	r18, 0x02	; 2
    2ab4:	42 0e       	add	r4, r18
    2ab6:	51 1c       	adc	r5, r1
    2ab8:	f8 01       	movw	r30, r16
    2aba:	a0 80       	ld	r10, Z
    2abc:	b1 80       	ldd	r11, Z+1	; 0x01
    2abe:	36 fe       	sbrs	r3, 6
    2ac0:	03 c0       	rjmp	.+6      	; 0x2ac8 <vfprintf+0x192>
    2ac2:	69 2d       	mov	r22, r9
    2ac4:	70 e0       	ldi	r23, 0x00	; 0
    2ac6:	02 c0       	rjmp	.+4      	; 0x2acc <vfprintf+0x196>
    2ac8:	6f ef       	ldi	r22, 0xFF	; 255
    2aca:	7f ef       	ldi	r23, 0xFF	; 255
    2acc:	c5 01       	movw	r24, r10
    2ace:	44 d1       	rcall	.+648    	; 0x2d58 <strnlen_P>
    2ad0:	4c 01       	movw	r8, r24
    2ad2:	f3 2d       	mov	r31, r3
    2ad4:	f0 68       	ori	r31, 0x80	; 128
    2ad6:	3f 2e       	mov	r3, r31
    2ad8:	82 01       	movw	r16, r4
    2ada:	33 fc       	sbrc	r3, 3
    2adc:	19 c0       	rjmp	.+50     	; 0x2b10 <vfprintf+0x1da>
    2ade:	82 2d       	mov	r24, r2
    2ae0:	90 e0       	ldi	r25, 0x00	; 0
    2ae2:	88 16       	cp	r8, r24
    2ae4:	99 06       	cpc	r9, r25
    2ae6:	a0 f4       	brcc	.+40     	; 0x2b10 <vfprintf+0x1da>
    2ae8:	b6 01       	movw	r22, r12
    2aea:	80 e2       	ldi	r24, 0x20	; 32
    2aec:	90 e0       	ldi	r25, 0x00	; 0
    2aee:	51 d1       	rcall	.+674    	; 0x2d92 <fputc>
    2af0:	2a 94       	dec	r2
    2af2:	f5 cf       	rjmp	.-22     	; 0x2ade <vfprintf+0x1a8>
    2af4:	f5 01       	movw	r30, r10
    2af6:	37 fc       	sbrc	r3, 7
    2af8:	85 91       	lpm	r24, Z+
    2afa:	37 fe       	sbrs	r3, 7
    2afc:	81 91       	ld	r24, Z+
    2afe:	5f 01       	movw	r10, r30
    2b00:	b6 01       	movw	r22, r12
    2b02:	90 e0       	ldi	r25, 0x00	; 0
    2b04:	46 d1       	rcall	.+652    	; 0x2d92 <fputc>
    2b06:	21 10       	cpse	r2, r1
    2b08:	2a 94       	dec	r2
    2b0a:	21 e0       	ldi	r18, 0x01	; 1
    2b0c:	82 1a       	sub	r8, r18
    2b0e:	91 08       	sbc	r9, r1
    2b10:	81 14       	cp	r8, r1
    2b12:	91 04       	cpc	r9, r1
    2b14:	79 f7       	brne	.-34     	; 0x2af4 <vfprintf+0x1be>
    2b16:	e1 c0       	rjmp	.+450    	; 0x2cda <vfprintf+0x3a4>
    2b18:	84 36       	cpi	r24, 0x64	; 100
    2b1a:	11 f0       	breq	.+4      	; 0x2b20 <vfprintf+0x1ea>
    2b1c:	89 36       	cpi	r24, 0x69	; 105
    2b1e:	39 f5       	brne	.+78     	; 0x2b6e <vfprintf+0x238>
    2b20:	f8 01       	movw	r30, r16
    2b22:	37 fe       	sbrs	r3, 7
    2b24:	07 c0       	rjmp	.+14     	; 0x2b34 <vfprintf+0x1fe>
    2b26:	60 81       	ld	r22, Z
    2b28:	71 81       	ldd	r23, Z+1	; 0x01
    2b2a:	82 81       	ldd	r24, Z+2	; 0x02
    2b2c:	93 81       	ldd	r25, Z+3	; 0x03
    2b2e:	0c 5f       	subi	r16, 0xFC	; 252
    2b30:	1f 4f       	sbci	r17, 0xFF	; 255
    2b32:	08 c0       	rjmp	.+16     	; 0x2b44 <vfprintf+0x20e>
    2b34:	60 81       	ld	r22, Z
    2b36:	71 81       	ldd	r23, Z+1	; 0x01
    2b38:	07 2e       	mov	r0, r23
    2b3a:	00 0c       	add	r0, r0
    2b3c:	88 0b       	sbc	r24, r24
    2b3e:	99 0b       	sbc	r25, r25
    2b40:	0e 5f       	subi	r16, 0xFE	; 254
    2b42:	1f 4f       	sbci	r17, 0xFF	; 255
    2b44:	f3 2d       	mov	r31, r3
    2b46:	ff 76       	andi	r31, 0x6F	; 111
    2b48:	3f 2e       	mov	r3, r31
    2b4a:	97 ff       	sbrs	r25, 7
    2b4c:	09 c0       	rjmp	.+18     	; 0x2b60 <vfprintf+0x22a>
    2b4e:	90 95       	com	r25
    2b50:	80 95       	com	r24
    2b52:	70 95       	com	r23
    2b54:	61 95       	neg	r22
    2b56:	7f 4f       	sbci	r23, 0xFF	; 255
    2b58:	8f 4f       	sbci	r24, 0xFF	; 255
    2b5a:	9f 4f       	sbci	r25, 0xFF	; 255
    2b5c:	f0 68       	ori	r31, 0x80	; 128
    2b5e:	3f 2e       	mov	r3, r31
    2b60:	2a e0       	ldi	r18, 0x0A	; 10
    2b62:	30 e0       	ldi	r19, 0x00	; 0
    2b64:	a3 01       	movw	r20, r6
    2b66:	51 d1       	rcall	.+674    	; 0x2e0a <__ultoa_invert>
    2b68:	88 2e       	mov	r8, r24
    2b6a:	86 18       	sub	r8, r6
    2b6c:	44 c0       	rjmp	.+136    	; 0x2bf6 <vfprintf+0x2c0>
    2b6e:	85 37       	cpi	r24, 0x75	; 117
    2b70:	31 f4       	brne	.+12     	; 0x2b7e <vfprintf+0x248>
    2b72:	23 2d       	mov	r18, r3
    2b74:	2f 7e       	andi	r18, 0xEF	; 239
    2b76:	b2 2e       	mov	r11, r18
    2b78:	2a e0       	ldi	r18, 0x0A	; 10
    2b7a:	30 e0       	ldi	r19, 0x00	; 0
    2b7c:	25 c0       	rjmp	.+74     	; 0x2bc8 <vfprintf+0x292>
    2b7e:	93 2d       	mov	r25, r3
    2b80:	99 7f       	andi	r25, 0xF9	; 249
    2b82:	b9 2e       	mov	r11, r25
    2b84:	8f 36       	cpi	r24, 0x6F	; 111
    2b86:	c1 f0       	breq	.+48     	; 0x2bb8 <vfprintf+0x282>
    2b88:	18 f4       	brcc	.+6      	; 0x2b90 <vfprintf+0x25a>
    2b8a:	88 35       	cpi	r24, 0x58	; 88
    2b8c:	79 f0       	breq	.+30     	; 0x2bac <vfprintf+0x276>
    2b8e:	ae c0       	rjmp	.+348    	; 0x2cec <vfprintf+0x3b6>
    2b90:	80 37       	cpi	r24, 0x70	; 112
    2b92:	19 f0       	breq	.+6      	; 0x2b9a <vfprintf+0x264>
    2b94:	88 37       	cpi	r24, 0x78	; 120
    2b96:	21 f0       	breq	.+8      	; 0x2ba0 <vfprintf+0x26a>
    2b98:	a9 c0       	rjmp	.+338    	; 0x2cec <vfprintf+0x3b6>
    2b9a:	e9 2f       	mov	r30, r25
    2b9c:	e0 61       	ori	r30, 0x10	; 16
    2b9e:	be 2e       	mov	r11, r30
    2ba0:	b4 fe       	sbrs	r11, 4
    2ba2:	0d c0       	rjmp	.+26     	; 0x2bbe <vfprintf+0x288>
    2ba4:	fb 2d       	mov	r31, r11
    2ba6:	f4 60       	ori	r31, 0x04	; 4
    2ba8:	bf 2e       	mov	r11, r31
    2baa:	09 c0       	rjmp	.+18     	; 0x2bbe <vfprintf+0x288>
    2bac:	34 fe       	sbrs	r3, 4
    2bae:	0a c0       	rjmp	.+20     	; 0x2bc4 <vfprintf+0x28e>
    2bb0:	29 2f       	mov	r18, r25
    2bb2:	26 60       	ori	r18, 0x06	; 6
    2bb4:	b2 2e       	mov	r11, r18
    2bb6:	06 c0       	rjmp	.+12     	; 0x2bc4 <vfprintf+0x28e>
    2bb8:	28 e0       	ldi	r18, 0x08	; 8
    2bba:	30 e0       	ldi	r19, 0x00	; 0
    2bbc:	05 c0       	rjmp	.+10     	; 0x2bc8 <vfprintf+0x292>
    2bbe:	20 e1       	ldi	r18, 0x10	; 16
    2bc0:	30 e0       	ldi	r19, 0x00	; 0
    2bc2:	02 c0       	rjmp	.+4      	; 0x2bc8 <vfprintf+0x292>
    2bc4:	20 e1       	ldi	r18, 0x10	; 16
    2bc6:	32 e0       	ldi	r19, 0x02	; 2
    2bc8:	f8 01       	movw	r30, r16
    2bca:	b7 fe       	sbrs	r11, 7
    2bcc:	07 c0       	rjmp	.+14     	; 0x2bdc <vfprintf+0x2a6>
    2bce:	60 81       	ld	r22, Z
    2bd0:	71 81       	ldd	r23, Z+1	; 0x01
    2bd2:	82 81       	ldd	r24, Z+2	; 0x02
    2bd4:	93 81       	ldd	r25, Z+3	; 0x03
    2bd6:	0c 5f       	subi	r16, 0xFC	; 252
    2bd8:	1f 4f       	sbci	r17, 0xFF	; 255
    2bda:	06 c0       	rjmp	.+12     	; 0x2be8 <vfprintf+0x2b2>
    2bdc:	60 81       	ld	r22, Z
    2bde:	71 81       	ldd	r23, Z+1	; 0x01
    2be0:	80 e0       	ldi	r24, 0x00	; 0
    2be2:	90 e0       	ldi	r25, 0x00	; 0
    2be4:	0e 5f       	subi	r16, 0xFE	; 254
    2be6:	1f 4f       	sbci	r17, 0xFF	; 255
    2be8:	a3 01       	movw	r20, r6
    2bea:	0f d1       	rcall	.+542    	; 0x2e0a <__ultoa_invert>
    2bec:	88 2e       	mov	r8, r24
    2bee:	86 18       	sub	r8, r6
    2bf0:	fb 2d       	mov	r31, r11
    2bf2:	ff 77       	andi	r31, 0x7F	; 127
    2bf4:	3f 2e       	mov	r3, r31
    2bf6:	36 fe       	sbrs	r3, 6
    2bf8:	0d c0       	rjmp	.+26     	; 0x2c14 <vfprintf+0x2de>
    2bfa:	23 2d       	mov	r18, r3
    2bfc:	2e 7f       	andi	r18, 0xFE	; 254
    2bfe:	a2 2e       	mov	r10, r18
    2c00:	89 14       	cp	r8, r9
    2c02:	58 f4       	brcc	.+22     	; 0x2c1a <vfprintf+0x2e4>
    2c04:	34 fe       	sbrs	r3, 4
    2c06:	0b c0       	rjmp	.+22     	; 0x2c1e <vfprintf+0x2e8>
    2c08:	32 fc       	sbrc	r3, 2
    2c0a:	09 c0       	rjmp	.+18     	; 0x2c1e <vfprintf+0x2e8>
    2c0c:	83 2d       	mov	r24, r3
    2c0e:	8e 7e       	andi	r24, 0xEE	; 238
    2c10:	a8 2e       	mov	r10, r24
    2c12:	05 c0       	rjmp	.+10     	; 0x2c1e <vfprintf+0x2e8>
    2c14:	b8 2c       	mov	r11, r8
    2c16:	a3 2c       	mov	r10, r3
    2c18:	03 c0       	rjmp	.+6      	; 0x2c20 <vfprintf+0x2ea>
    2c1a:	b8 2c       	mov	r11, r8
    2c1c:	01 c0       	rjmp	.+2      	; 0x2c20 <vfprintf+0x2ea>
    2c1e:	b9 2c       	mov	r11, r9
    2c20:	a4 fe       	sbrs	r10, 4
    2c22:	0f c0       	rjmp	.+30     	; 0x2c42 <vfprintf+0x30c>
    2c24:	fe 01       	movw	r30, r28
    2c26:	e8 0d       	add	r30, r8
    2c28:	f1 1d       	adc	r31, r1
    2c2a:	80 81       	ld	r24, Z
    2c2c:	80 33       	cpi	r24, 0x30	; 48
    2c2e:	21 f4       	brne	.+8      	; 0x2c38 <vfprintf+0x302>
    2c30:	9a 2d       	mov	r25, r10
    2c32:	99 7e       	andi	r25, 0xE9	; 233
    2c34:	a9 2e       	mov	r10, r25
    2c36:	09 c0       	rjmp	.+18     	; 0x2c4a <vfprintf+0x314>
    2c38:	a2 fe       	sbrs	r10, 2
    2c3a:	06 c0       	rjmp	.+12     	; 0x2c48 <vfprintf+0x312>
    2c3c:	b3 94       	inc	r11
    2c3e:	b3 94       	inc	r11
    2c40:	04 c0       	rjmp	.+8      	; 0x2c4a <vfprintf+0x314>
    2c42:	8a 2d       	mov	r24, r10
    2c44:	86 78       	andi	r24, 0x86	; 134
    2c46:	09 f0       	breq	.+2      	; 0x2c4a <vfprintf+0x314>
    2c48:	b3 94       	inc	r11
    2c4a:	a3 fc       	sbrc	r10, 3
    2c4c:	10 c0       	rjmp	.+32     	; 0x2c6e <vfprintf+0x338>
    2c4e:	a0 fe       	sbrs	r10, 0
    2c50:	06 c0       	rjmp	.+12     	; 0x2c5e <vfprintf+0x328>
    2c52:	b2 14       	cp	r11, r2
    2c54:	80 f4       	brcc	.+32     	; 0x2c76 <vfprintf+0x340>
    2c56:	28 0c       	add	r2, r8
    2c58:	92 2c       	mov	r9, r2
    2c5a:	9b 18       	sub	r9, r11
    2c5c:	0d c0       	rjmp	.+26     	; 0x2c78 <vfprintf+0x342>
    2c5e:	b2 14       	cp	r11, r2
    2c60:	58 f4       	brcc	.+22     	; 0x2c78 <vfprintf+0x342>
    2c62:	b6 01       	movw	r22, r12
    2c64:	80 e2       	ldi	r24, 0x20	; 32
    2c66:	90 e0       	ldi	r25, 0x00	; 0
    2c68:	94 d0       	rcall	.+296    	; 0x2d92 <fputc>
    2c6a:	b3 94       	inc	r11
    2c6c:	f8 cf       	rjmp	.-16     	; 0x2c5e <vfprintf+0x328>
    2c6e:	b2 14       	cp	r11, r2
    2c70:	18 f4       	brcc	.+6      	; 0x2c78 <vfprintf+0x342>
    2c72:	2b 18       	sub	r2, r11
    2c74:	02 c0       	rjmp	.+4      	; 0x2c7a <vfprintf+0x344>
    2c76:	98 2c       	mov	r9, r8
    2c78:	21 2c       	mov	r2, r1
    2c7a:	a4 fe       	sbrs	r10, 4
    2c7c:	0f c0       	rjmp	.+30     	; 0x2c9c <vfprintf+0x366>
    2c7e:	b6 01       	movw	r22, r12
    2c80:	80 e3       	ldi	r24, 0x30	; 48
    2c82:	90 e0       	ldi	r25, 0x00	; 0
    2c84:	86 d0       	rcall	.+268    	; 0x2d92 <fputc>
    2c86:	a2 fe       	sbrs	r10, 2
    2c88:	16 c0       	rjmp	.+44     	; 0x2cb6 <vfprintf+0x380>
    2c8a:	a1 fc       	sbrc	r10, 1
    2c8c:	03 c0       	rjmp	.+6      	; 0x2c94 <vfprintf+0x35e>
    2c8e:	88 e7       	ldi	r24, 0x78	; 120
    2c90:	90 e0       	ldi	r25, 0x00	; 0
    2c92:	02 c0       	rjmp	.+4      	; 0x2c98 <vfprintf+0x362>
    2c94:	88 e5       	ldi	r24, 0x58	; 88
    2c96:	90 e0       	ldi	r25, 0x00	; 0
    2c98:	b6 01       	movw	r22, r12
    2c9a:	0c c0       	rjmp	.+24     	; 0x2cb4 <vfprintf+0x37e>
    2c9c:	8a 2d       	mov	r24, r10
    2c9e:	86 78       	andi	r24, 0x86	; 134
    2ca0:	51 f0       	breq	.+20     	; 0x2cb6 <vfprintf+0x380>
    2ca2:	a1 fe       	sbrs	r10, 1
    2ca4:	02 c0       	rjmp	.+4      	; 0x2caa <vfprintf+0x374>
    2ca6:	8b e2       	ldi	r24, 0x2B	; 43
    2ca8:	01 c0       	rjmp	.+2      	; 0x2cac <vfprintf+0x376>
    2caa:	80 e2       	ldi	r24, 0x20	; 32
    2cac:	a7 fc       	sbrc	r10, 7
    2cae:	8d e2       	ldi	r24, 0x2D	; 45
    2cb0:	b6 01       	movw	r22, r12
    2cb2:	90 e0       	ldi	r25, 0x00	; 0
    2cb4:	6e d0       	rcall	.+220    	; 0x2d92 <fputc>
    2cb6:	89 14       	cp	r8, r9
    2cb8:	30 f4       	brcc	.+12     	; 0x2cc6 <vfprintf+0x390>
    2cba:	b6 01       	movw	r22, r12
    2cbc:	80 e3       	ldi	r24, 0x30	; 48
    2cbe:	90 e0       	ldi	r25, 0x00	; 0
    2cc0:	68 d0       	rcall	.+208    	; 0x2d92 <fputc>
    2cc2:	9a 94       	dec	r9
    2cc4:	f8 cf       	rjmp	.-16     	; 0x2cb6 <vfprintf+0x380>
    2cc6:	8a 94       	dec	r8
    2cc8:	f3 01       	movw	r30, r6
    2cca:	e8 0d       	add	r30, r8
    2ccc:	f1 1d       	adc	r31, r1
    2cce:	80 81       	ld	r24, Z
    2cd0:	b6 01       	movw	r22, r12
    2cd2:	90 e0       	ldi	r25, 0x00	; 0
    2cd4:	5e d0       	rcall	.+188    	; 0x2d92 <fputc>
    2cd6:	81 10       	cpse	r8, r1
    2cd8:	f6 cf       	rjmp	.-20     	; 0x2cc6 <vfprintf+0x390>
    2cda:	22 20       	and	r2, r2
    2cdc:	09 f4       	brne	.+2      	; 0x2ce0 <vfprintf+0x3aa>
    2cde:	4e ce       	rjmp	.-868    	; 0x297c <vfprintf+0x46>
    2ce0:	b6 01       	movw	r22, r12
    2ce2:	80 e2       	ldi	r24, 0x20	; 32
    2ce4:	90 e0       	ldi	r25, 0x00	; 0
    2ce6:	55 d0       	rcall	.+170    	; 0x2d92 <fputc>
    2ce8:	2a 94       	dec	r2
    2cea:	f7 cf       	rjmp	.-18     	; 0x2cda <vfprintf+0x3a4>
    2cec:	f6 01       	movw	r30, r12
    2cee:	86 81       	ldd	r24, Z+6	; 0x06
    2cf0:	97 81       	ldd	r25, Z+7	; 0x07
    2cf2:	02 c0       	rjmp	.+4      	; 0x2cf8 <vfprintf+0x3c2>
    2cf4:	8f ef       	ldi	r24, 0xFF	; 255
    2cf6:	9f ef       	ldi	r25, 0xFF	; 255
    2cf8:	2b 96       	adiw	r28, 0x0b	; 11
    2cfa:	cd bf       	out	0x3d, r28	; 61
    2cfc:	de bf       	out	0x3e, r29	; 62
    2cfe:	df 91       	pop	r29
    2d00:	cf 91       	pop	r28
    2d02:	1f 91       	pop	r17
    2d04:	0f 91       	pop	r16
    2d06:	ff 90       	pop	r15
    2d08:	ef 90       	pop	r14
    2d0a:	df 90       	pop	r13
    2d0c:	cf 90       	pop	r12
    2d0e:	bf 90       	pop	r11
    2d10:	af 90       	pop	r10
    2d12:	9f 90       	pop	r9
    2d14:	8f 90       	pop	r8
    2d16:	7f 90       	pop	r7
    2d18:	6f 90       	pop	r6
    2d1a:	5f 90       	pop	r5
    2d1c:	4f 90       	pop	r4
    2d1e:	3f 90       	pop	r3
    2d20:	2f 90       	pop	r2
    2d22:	08 95       	ret

00002d24 <calloc>:
    2d24:	0f 93       	push	r16
    2d26:	1f 93       	push	r17
    2d28:	cf 93       	push	r28
    2d2a:	df 93       	push	r29
    2d2c:	86 9f       	mul	r24, r22
    2d2e:	80 01       	movw	r16, r0
    2d30:	87 9f       	mul	r24, r23
    2d32:	10 0d       	add	r17, r0
    2d34:	96 9f       	mul	r25, r22
    2d36:	10 0d       	add	r17, r0
    2d38:	11 24       	eor	r1, r1
    2d3a:	c8 01       	movw	r24, r16
    2d3c:	4e dc       	rcall	.-1892   	; 0x25da <malloc>
    2d3e:	ec 01       	movw	r28, r24
    2d40:	00 97       	sbiw	r24, 0x00	; 0
    2d42:	21 f0       	breq	.+8      	; 0x2d4c <calloc+0x28>
    2d44:	a8 01       	movw	r20, r16
    2d46:	60 e0       	ldi	r22, 0x00	; 0
    2d48:	70 e0       	ldi	r23, 0x00	; 0
    2d4a:	11 d0       	rcall	.+34     	; 0x2d6e <memset>
    2d4c:	ce 01       	movw	r24, r28
    2d4e:	df 91       	pop	r29
    2d50:	cf 91       	pop	r28
    2d52:	1f 91       	pop	r17
    2d54:	0f 91       	pop	r16
    2d56:	08 95       	ret

00002d58 <strnlen_P>:
    2d58:	fc 01       	movw	r30, r24
    2d5a:	05 90       	lpm	r0, Z+
    2d5c:	61 50       	subi	r22, 0x01	; 1
    2d5e:	70 40       	sbci	r23, 0x00	; 0
    2d60:	01 10       	cpse	r0, r1
    2d62:	d8 f7       	brcc	.-10     	; 0x2d5a <strnlen_P+0x2>
    2d64:	80 95       	com	r24
    2d66:	90 95       	com	r25
    2d68:	8e 0f       	add	r24, r30
    2d6a:	9f 1f       	adc	r25, r31
    2d6c:	08 95       	ret

00002d6e <memset>:
    2d6e:	dc 01       	movw	r26, r24
    2d70:	01 c0       	rjmp	.+2      	; 0x2d74 <memset+0x6>
    2d72:	6d 93       	st	X+, r22
    2d74:	41 50       	subi	r20, 0x01	; 1
    2d76:	50 40       	sbci	r21, 0x00	; 0
    2d78:	e0 f7       	brcc	.-8      	; 0x2d72 <memset+0x4>
    2d7a:	08 95       	ret

00002d7c <strnlen>:
    2d7c:	fc 01       	movw	r30, r24
    2d7e:	61 50       	subi	r22, 0x01	; 1
    2d80:	70 40       	sbci	r23, 0x00	; 0
    2d82:	01 90       	ld	r0, Z+
    2d84:	01 10       	cpse	r0, r1
    2d86:	d8 f7       	brcc	.-10     	; 0x2d7e <strnlen+0x2>
    2d88:	80 95       	com	r24
    2d8a:	90 95       	com	r25
    2d8c:	8e 0f       	add	r24, r30
    2d8e:	9f 1f       	adc	r25, r31
    2d90:	08 95       	ret

00002d92 <fputc>:
    2d92:	0f 93       	push	r16
    2d94:	1f 93       	push	r17
    2d96:	cf 93       	push	r28
    2d98:	df 93       	push	r29
    2d9a:	fb 01       	movw	r30, r22
    2d9c:	23 81       	ldd	r18, Z+3	; 0x03
    2d9e:	21 fd       	sbrc	r18, 1
    2da0:	03 c0       	rjmp	.+6      	; 0x2da8 <fputc+0x16>
    2da2:	8f ef       	ldi	r24, 0xFF	; 255
    2da4:	9f ef       	ldi	r25, 0xFF	; 255
    2da6:	2c c0       	rjmp	.+88     	; 0x2e00 <fputc+0x6e>
    2da8:	22 ff       	sbrs	r18, 2
    2daa:	16 c0       	rjmp	.+44     	; 0x2dd8 <fputc+0x46>
    2dac:	46 81       	ldd	r20, Z+6	; 0x06
    2dae:	57 81       	ldd	r21, Z+7	; 0x07
    2db0:	24 81       	ldd	r18, Z+4	; 0x04
    2db2:	35 81       	ldd	r19, Z+5	; 0x05
    2db4:	42 17       	cp	r20, r18
    2db6:	53 07       	cpc	r21, r19
    2db8:	44 f4       	brge	.+16     	; 0x2dca <fputc+0x38>
    2dba:	a0 81       	ld	r26, Z
    2dbc:	b1 81       	ldd	r27, Z+1	; 0x01
    2dbe:	9d 01       	movw	r18, r26
    2dc0:	2f 5f       	subi	r18, 0xFF	; 255
    2dc2:	3f 4f       	sbci	r19, 0xFF	; 255
    2dc4:	20 83       	st	Z, r18
    2dc6:	31 83       	std	Z+1, r19	; 0x01
    2dc8:	8c 93       	st	X, r24
    2dca:	26 81       	ldd	r18, Z+6	; 0x06
    2dcc:	37 81       	ldd	r19, Z+7	; 0x07
    2dce:	2f 5f       	subi	r18, 0xFF	; 255
    2dd0:	3f 4f       	sbci	r19, 0xFF	; 255
    2dd2:	26 83       	std	Z+6, r18	; 0x06
    2dd4:	37 83       	std	Z+7, r19	; 0x07
    2dd6:	14 c0       	rjmp	.+40     	; 0x2e00 <fputc+0x6e>
    2dd8:	8b 01       	movw	r16, r22
    2dda:	ec 01       	movw	r28, r24
    2ddc:	fb 01       	movw	r30, r22
    2dde:	00 84       	ldd	r0, Z+8	; 0x08
    2de0:	f1 85       	ldd	r31, Z+9	; 0x09
    2de2:	e0 2d       	mov	r30, r0
    2de4:	19 95       	eicall
    2de6:	89 2b       	or	r24, r25
    2de8:	e1 f6       	brne	.-72     	; 0x2da2 <fputc+0x10>
    2dea:	d8 01       	movw	r26, r16
    2dec:	16 96       	adiw	r26, 0x06	; 6
    2dee:	8d 91       	ld	r24, X+
    2df0:	9c 91       	ld	r25, X
    2df2:	17 97       	sbiw	r26, 0x07	; 7
    2df4:	01 96       	adiw	r24, 0x01	; 1
    2df6:	16 96       	adiw	r26, 0x06	; 6
    2df8:	8d 93       	st	X+, r24
    2dfa:	9c 93       	st	X, r25
    2dfc:	17 97       	sbiw	r26, 0x07	; 7
    2dfe:	ce 01       	movw	r24, r28
    2e00:	df 91       	pop	r29
    2e02:	cf 91       	pop	r28
    2e04:	1f 91       	pop	r17
    2e06:	0f 91       	pop	r16
    2e08:	08 95       	ret

00002e0a <__ultoa_invert>:
    2e0a:	fa 01       	movw	r30, r20
    2e0c:	aa 27       	eor	r26, r26
    2e0e:	28 30       	cpi	r18, 0x08	; 8
    2e10:	51 f1       	breq	.+84     	; 0x2e66 <__ultoa_invert+0x5c>
    2e12:	20 31       	cpi	r18, 0x10	; 16
    2e14:	81 f1       	breq	.+96     	; 0x2e76 <__ultoa_invert+0x6c>
    2e16:	e8 94       	clt
    2e18:	6f 93       	push	r22
    2e1a:	6e 7f       	andi	r22, 0xFE	; 254
    2e1c:	6e 5f       	subi	r22, 0xFE	; 254
    2e1e:	7f 4f       	sbci	r23, 0xFF	; 255
    2e20:	8f 4f       	sbci	r24, 0xFF	; 255
    2e22:	9f 4f       	sbci	r25, 0xFF	; 255
    2e24:	af 4f       	sbci	r26, 0xFF	; 255
    2e26:	b1 e0       	ldi	r27, 0x01	; 1
    2e28:	3e d0       	rcall	.+124    	; 0x2ea6 <__ultoa_invert+0x9c>
    2e2a:	b4 e0       	ldi	r27, 0x04	; 4
    2e2c:	3c d0       	rcall	.+120    	; 0x2ea6 <__ultoa_invert+0x9c>
    2e2e:	67 0f       	add	r22, r23
    2e30:	78 1f       	adc	r23, r24
    2e32:	89 1f       	adc	r24, r25
    2e34:	9a 1f       	adc	r25, r26
    2e36:	a1 1d       	adc	r26, r1
    2e38:	68 0f       	add	r22, r24
    2e3a:	79 1f       	adc	r23, r25
    2e3c:	8a 1f       	adc	r24, r26
    2e3e:	91 1d       	adc	r25, r1
    2e40:	a1 1d       	adc	r26, r1
    2e42:	6a 0f       	add	r22, r26
    2e44:	71 1d       	adc	r23, r1
    2e46:	81 1d       	adc	r24, r1
    2e48:	91 1d       	adc	r25, r1
    2e4a:	a1 1d       	adc	r26, r1
    2e4c:	20 d0       	rcall	.+64     	; 0x2e8e <__ultoa_invert+0x84>
    2e4e:	09 f4       	brne	.+2      	; 0x2e52 <__ultoa_invert+0x48>
    2e50:	68 94       	set
    2e52:	3f 91       	pop	r19
    2e54:	2a e0       	ldi	r18, 0x0A	; 10
    2e56:	26 9f       	mul	r18, r22
    2e58:	11 24       	eor	r1, r1
    2e5a:	30 19       	sub	r19, r0
    2e5c:	30 5d       	subi	r19, 0xD0	; 208
    2e5e:	31 93       	st	Z+, r19
    2e60:	de f6       	brtc	.-74     	; 0x2e18 <__ultoa_invert+0xe>
    2e62:	cf 01       	movw	r24, r30
    2e64:	08 95       	ret
    2e66:	46 2f       	mov	r20, r22
    2e68:	47 70       	andi	r20, 0x07	; 7
    2e6a:	40 5d       	subi	r20, 0xD0	; 208
    2e6c:	41 93       	st	Z+, r20
    2e6e:	b3 e0       	ldi	r27, 0x03	; 3
    2e70:	0f d0       	rcall	.+30     	; 0x2e90 <__ultoa_invert+0x86>
    2e72:	c9 f7       	brne	.-14     	; 0x2e66 <__ultoa_invert+0x5c>
    2e74:	f6 cf       	rjmp	.-20     	; 0x2e62 <__ultoa_invert+0x58>
    2e76:	46 2f       	mov	r20, r22
    2e78:	4f 70       	andi	r20, 0x0F	; 15
    2e7a:	40 5d       	subi	r20, 0xD0	; 208
    2e7c:	4a 33       	cpi	r20, 0x3A	; 58
    2e7e:	18 f0       	brcs	.+6      	; 0x2e86 <__ultoa_invert+0x7c>
    2e80:	49 5d       	subi	r20, 0xD9	; 217
    2e82:	31 fd       	sbrc	r19, 1
    2e84:	40 52       	subi	r20, 0x20	; 32
    2e86:	41 93       	st	Z+, r20
    2e88:	02 d0       	rcall	.+4      	; 0x2e8e <__ultoa_invert+0x84>
    2e8a:	a9 f7       	brne	.-22     	; 0x2e76 <__ultoa_invert+0x6c>
    2e8c:	ea cf       	rjmp	.-44     	; 0x2e62 <__ultoa_invert+0x58>
    2e8e:	b4 e0       	ldi	r27, 0x04	; 4
    2e90:	a6 95       	lsr	r26
    2e92:	97 95       	ror	r25
    2e94:	87 95       	ror	r24
    2e96:	77 95       	ror	r23
    2e98:	67 95       	ror	r22
    2e9a:	ba 95       	dec	r27
    2e9c:	c9 f7       	brne	.-14     	; 0x2e90 <__ultoa_invert+0x86>
    2e9e:	00 97       	sbiw	r24, 0x00	; 0
    2ea0:	61 05       	cpc	r22, r1
    2ea2:	71 05       	cpc	r23, r1
    2ea4:	08 95       	ret
    2ea6:	9b 01       	movw	r18, r22
    2ea8:	ac 01       	movw	r20, r24
    2eaa:	0a 2e       	mov	r0, r26
    2eac:	06 94       	lsr	r0
    2eae:	57 95       	ror	r21
    2eb0:	47 95       	ror	r20
    2eb2:	37 95       	ror	r19
    2eb4:	27 95       	ror	r18
    2eb6:	ba 95       	dec	r27
    2eb8:	c9 f7       	brne	.-14     	; 0x2eac <__ultoa_invert+0xa2>
    2eba:	62 0f       	add	r22, r18
    2ebc:	73 1f       	adc	r23, r19
    2ebe:	84 1f       	adc	r24, r20
    2ec0:	95 1f       	adc	r25, r21
    2ec2:	a0 1d       	adc	r26, r0
    2ec4:	08 95       	ret

00002ec6 <_exit>:
    2ec6:	f8 94       	cli

00002ec8 <__stop_program>:
    2ec8:	ff cf       	rjmp	.-2      	; 0x2ec8 <__stop_program>
